(dp0
I0
c__builtin__
set
p1
((lp2
I904
aI818
atp3
Rp4
sI1
g1
((lp5
I1032
aI113
aI823
aI129
atp6
Rp7
sI2
g1
((lp8
I1034
aI731
aI1026
atp9
Rp10
sI3
g1
((lp11
I1161
aI273
aI817
atp12
Rp13
sI4
g1
((lp14
I1104
aI1041
aI1060
aI308
atp15
Rp16
sI5
g1
((lp17
I515
aI708
aI125
aI503
atp18
Rp19
sI6
g1
((lp20
I224
atp21
Rp22
sI7
g1
((lp23
I319
aI429
aI1191
atp24
Rp25
sI8
g1
((lp26
I1010
aI18
aI835
aI228
aI948
aI202
aI687
aI508
aI1074
aI413
atp27
Rp28
sI9
g1
((lp29
I684
aI819
aI348
aI1197
atp30
Rp31
sI10
g1
((lp32
I1233
aI83
aI131
aI951
aI1116
aI686
aI527
atp33
Rp34
sI11
g1
((lp35
I119
aI364
aI55
atp36
Rp37
sI12
g1
((lp38
I378
aI106
atp39
Rp40
sI13
g1
((lp41
I289
aI418
aI826
atp42
Rp43
sI14
g1
((lp44
I994
aI149
aI86
aI1000
aI252
aI397
atp45
Rp46
sI15
g1
((lp47
I300
aI43
aI956
aI467
aI895
atp48
Rp49
sI16
g1
((lp50
I352
aI1204
aI660
atp51
Rp52
sI17
g1
((lp53
I874
atp54
Rp55
sI18
g1
((lp56
I8
aI209
aI747
atp57
Rp58
sI19
g1
((lp59
I1217
aI898
aI462
aI1014
aI711
aI54
aI859
aI797
aI126
aI1197
atp60
Rp61
sI20
g1
((lp62
I323
aI356
aI719
aI572
aI899
aI542
aI527
atp63
Rp64
sI21
g1
((lp65
I785
aI933
aI849
aI1017
aI890
aI1130
aI668
aI493
aI1045
aI277
atp66
Rp67
sI22
g1
((lp68
I849
aI34
aI627
aI244
aI865
aI507
aI367
atp69
Rp70
sI23
g1
((lp71
I100
aI76
aI572
aI161
aI991
atp72
Rp73
sI24
g1
((lp74
I658
aI100
aI949
aI534
aI556
aI1119
atp75
Rp76
sI25
g1
((lp77
I661
atp78
Rp79
sI26
g1
((lp80
I1080
aI769
aI347
aI86
aI535
atp81
Rp82
sI27
g1
((lp83
I1220
aI214
aI262
aI824
aI1165
aI1029
atp84
Rp85
sI28
g1
((lp86
I224
aI931
aI726
aI39
aI633
aI186
aI1198
atp87
Rp88
sI29
g1
((lp89
I536
aI1016
aI1034
aI279
atp90
Rp91
sI30
g1
((lp92
I913
aI1180
aI877
aI1094
aI887
atp93
Rp94
sI31
g1
((lp95
I916
aI1078
aI1224
aI667
aI524
aI845
aI494
aI333
atp96
Rp97
sI32
g1
((lp98
I528
aI928
aI126
aI1233
aI684
aI158
atp99
Rp100
sI33
g1
((lp101
I1107
aI229
aI102
aI263
aI1179
aI204
atp102
Rp103
sI34
g1
((lp104
I22
atp105
Rp106
sI35
g1
((lp107
I65
aI1139
aI984
aI604
aI491
aI188
atp108
Rp109
sI36
g1
((lp110
I816
aI625
aI355
aI790
aI1075
aI236
aI428
atp111
Rp112
sI37
g1
((lp113
I1085
atp114
Rp115
sI38
g1
((lp116
I304
aI302
atp117
Rp118
sI39
g1
((lp119
I1010
aI567
aI696
aI1002
aI28
aI430
atp120
Rp121
sI40
g1
((lp122
I819
aI246
aI158
atp123
Rp124
sI41
g1
((lp125
I1108
aI390
aI119
atp126
Rp127
sI42
g1
((lp128
I440
aI960
aI1035
aI1139
atp129
Rp130
sI43
g1
((lp131
I112
aI860
aI266
aI540
aI410
aI15
atp132
Rp133
sI44
g1
((lp134
I425
aI503
aI808
aI268
aI572
aI638
aI79
atp135
Rp136
sI45
g1
((lp137
I833
aI898
aI339
aI968
aI714
aI94
atp138
Rp139
sI46
g1
((lp140
I1105
aI795
aI333
aI774
atp141
Rp142
sI47
g1
((lp143
I1057
aI636
aI518
aI102
aI239
atp144
Rp145
sI48
g1
((lp146
I728
aI693
aI166
aI391
aI280
aI762
aI1147
aI204
aI126
atp147
Rp148
sI49
g1
((lp149
I1203
aI607
atp150
Rp151
sI50
g1
((lp152
I1211
aI812
aI526
aI758
atp153
Rp154
sI51
g1
((lp155
I648
aI891
aI1005
aI982
aI263
atp156
Rp157
sI52
g1
((lp158
I402
aI724
aI744
aI906
aI610
aI590
atp159
Rp160
sI53
g1
((lp161
I521
aI1211
aI948
aI879
atp162
Rp163
sI54
g1
((lp164
I1185
aI19
aI885
aI1146
aI1178
aI779
aI541
aI319
atp165
Rp166
sI55
g1
((lp167
I761
aI289
aI11
aI324
aI471
atp168
Rp169
sI56
g1
((lp170
I808
aI612
aI274
aI444
atp171
Rp172
sI57
g1
((lp173
I912
aI944
aI692
aI219
aI734
aI447
atp174
Rp175
sI58
g1
((lp176
I720
aI112
aI1082
aI124
aI1142
atp177
Rp178
sI59
g1
((lp179
I203
aI420
aI1199
aI855
atp180
Rp181
sI60
g1
((lp182
tp183
Rp184
sI61
g1
((lp185
I899
aI326
aI1169
aI298
aI942
aI209
aI404
aI766
aI537
aI602
aI990
atp186
Rp187
sI62
g1
((lp188
I1132
aI682
aI84
atp189
Rp190
sI63
g1
((lp191
I656
aI122
aI947
atp192
Rp193
sI64
g1
((lp194
I243
aI909
aI838
atp195
Rp196
sI65
g1
((lp197
I1121
aI859
aI35
aI764
atp198
Rp199
sI66
g1
((lp200
I1072
aI737
aI172
aI753
atp201
Rp202
sI67
g1
((lp203
I632
aI297
aI1147
aI1069
aI1113
atp204
Rp205
sI68
g1
((lp206
I1088
aI977
aI1093
aI822
aI328
aI922
aI1021
atp207
Rp208
sI69
g1
((lp209
I850
aI547
aI413
aI310
atp210
Rp211
sI70
g1
((lp212
I898
aI1187
aI93
aI415
atp213
Rp214
sI71
g1
((lp215
I769
aI788
aI806
aI1172
aI91
aI1166
atp216
Rp217
sI72
g1
((lp218
I536
aI1088
aI1077
aI1191
atp219
Rp220
sI73
g1
((lp221
I954
aI167
aI693
aI95
atp222
Rp223
sI74
g1
((lp224
I504
aI765
aI877
atp225
Rp226
sI75
g1
((lp227
I369
aI514
aI985
aI282
aI235
aI476
aI205
aI895
atp228
Rp229
sI76
g1
((lp230
I578
aI23
aI1048
aI429
aI798
aI159
atp231
Rp232
sI77
g1
((lp233
I1179
aI652
aI870
atp234
Rp235
sI78
g1
((lp236
I822
aI407
aI941
aI1050
aI1167
aI493
aI685
atp237
Rp238
sI79
g1
((lp239
I681
aI426
aI44
aI989
aI430
aI655
atp240
Rp241
sI80
g1
((lp242
I980
aI734
aI454
aI183
aI1124
aI1210
aI590
aI655
atp243
Rp244
sI81
g1
((lp245
I801
aI306
aI1049
atp246
Rp247
sI82
g1
((lp248
I371
aI515
atp249
Rp250
sI83
g1
((lp251
I10
aI685
aI782
aI687
atp252
Rp253
sI84
g1
((lp254
I753
aI594
aI740
aI694
aI408
aI282
aI828
aI930
aI62
atp255
Rp256
sI85
g1
((lp257
I176
aI512
atp258
Rp259
sI86
g1
((lp260
I1070
aI424
aI26
aI587
aI14
aI511
atp261
Rp262
sI87
g1
((lp263
I785
aI627
aI468
aI858
aI255
aI495
atp264
Rp265
sI88
g1
((lp266
tp267
Rp268
sI89
g1
((lp269
I987
aI932
aI629
aI406
aI363
aI558
atp270
Rp271
sI90
g1
((lp272
I432
aI386
aI589
aI1222
atp273
Rp274
sI91
g1
((lp275
I672
aI98
aI1125
aI743
aI664
aI969
aI858
aI71
aI685
atp276
Rp277
sI92
g1
((lp278
I1219
aI370
aI975
aI230
aI303
atp279
Rp280
sI93
g1
((lp281
I168
aI854
aI70
atp282
Rp283
sI94
g1
((lp284
I1073
aI1027
aI45
aI905
atp285
Rp286
sI95
g1
((lp287
I360
aI73
aI871
aI589
aI311
atp288
Rp289
sI96
g1
((lp290
I312
aI225
aI1218
aI1165
atp291
Rp292
sI97
g1
((lp293
I856
aI514
aI718
aI326
atp294
Rp295
sI98
g1
((lp296
I1217
aI181
aI390
aI617
aI317
aI91
aI221
aI717
atp297
Rp298
sI99
g1
((lp299
I697
aI238
atp300
Rp301
sI100
g1
((lp302
I24
aI624
aI1026
aI1045
aI23
atp303
Rp304
sI101
g1
((lp305
I864
aI177
aI290
aI260
aI1174
aI680
aI162
aI190
aI783
atp306
Rp307
sI102
g1
((lp308
I33
aI755
aI628
aI1077
aI47
aI927
atp309
Rp310
sI103
g1
((lp311
I432
aI1219
aI804
aI169
aI522
aI539
aI894
aI751
atp312
Rp313
sI104
g1
((lp314
I1232
aI354
aI475
aI501
aI505
aI442
aI107
aI282
aI558
atp315
Rp316
sI105
g1
((lp317
I545
aI435
aI1173
aI977
aI1050
aI940
aI127
atp318
Rp319
sI106
g1
((lp320
I12
aI989
atp321
Rp322
sI107
g1
((lp323
I529
aI366
aI182
aI1233
aI104
aI153
aI254
aI991
atp324
Rp325
sI108
g1
((lp326
I197
atp327
Rp328
sI109
g1
((lp329
I700
aI606
aI623
atp330
Rp331
sI110
g1
((lp332
I145
aI251
aI1220
aI1213
aI263
aI921
aI651
aI957
aI687
atp333
Rp334
sI111
g1
((lp335
I1131
aI659
aI1082
aI1227
aI333
aI765
atp336
Rp337
sI112
g1
((lp338
I474
aI153
aI810
aI43
aI58
aI621
atp339
Rp340
sI113
g1
((lp341
I1
aI546
aI636
aI318
atp342
Rp343
sI114
g1
((lp344
I1234
aI987
aI996
aI520
aI404
aI603
aI510
aI319
atp345
Rp346
sI115
g1
((lp347
I1202
atp348
Rp349
sI116
g1
((lp350
I323
aI263
aI835
aI715
aI188
aI543
atp351
Rp352
sI117
g1
((lp353
I304
aI961
aI581
aI439
aI392
aI570
aI757
atp354
Rp355
sI118
g1
((lp356
I752
aI520
aI703
atp357
Rp358
sI119
g1
((lp359
I355
aI1128
aI41
aI11
aI648
aI722
aI341
aI791
aI1081
aI136
aI891
atp360
Rp361
sI120
g1
((lp362
I928
aI994
aI483
aI147
aI1193
aI442
aI925
atp363
Rp364
sI121
g1
((lp365
I353
aI1122
aI1204
aI798
atp366
Rp367
sI122
g1
((lp368
I226
aI491
aI548
aI677
aI63
aI957
aI366
aI493
atp369
Rp370
sI123
g1
((lp371
I1225
aI1156
aI189
aI413
atp372
Rp373
sI124
g1
((lp374
I352
aI513
aI58
aI342
atp375
Rp376
sI125
g1
((lp377
I946
aI755
aI5
aI457
aI233
aI1178
aI140
aI930
aI693
atp378
Rp379
sI126
g1
((lp380
I32
aI48
aI19
aI660
aI503
aI719
atp381
Rp382
sI127
g1
((lp383
I105
aI553
atp384
Rp385
sI128
g1
((lp386
I993
aI1050
aI493
aI718
aI887
atp387
Rp388
sI129
g1
((lp389
I1
aI1060
aI1126
atp390
Rp391
sI130
g1
((lp392
I465
aI930
aI203
aI183
atp393
Rp394
sI131
g1
((lp395
I329
aI10
aI339
atp396
Rp397
sI132
g1
((lp398
I1017
aI217
aI623
aI455
aI281
atp399
Rp400
sI133
g1
((lp401
I659
aI164
aI1164
aI506
aI1084
atp402
Rp403
sI134
g1
((lp404
I965
aI855
aI280
aI1145
aI954
aI375
atp405
Rp406
sI135
g1
((lp407
I241
aI811
aI762
aI539
aI1116
aI783
atp408
Rp409
sI136
g1
((lp410
I1214
aI119
atp411
Rp412
sI137
g1
((lp413
I1125
aI1023
atp414
Rp415
sI138
g1
((lp416
I536
aI281
aI812
aI757
atp417
Rp418
sI139
g1
((lp419
I177
aI426
aI954
aI1031
atp420
Rp421
sI140
g1
((lp422
I483
aI125
aI949
atp423
Rp424
sI141
g1
((lp425
I948
aI406
aI516
aI283
aI940
aI670
aI815
atp426
Rp427
sI142
g1
((lp428
I1203
aI381
aI1230
atp429
Rp430
sI143
g1
((lp431
I433
aI1082
aI695
atp432
Rp433
sI144
g1
((lp434
I240
aI1032
aI874
aI974
aI631
atp435
Rp436
sI145
g1
((lp437
I715
aI110
atp438
Rp439
sI146
g1
((lp440
I1146
aI490
aI538
aI293
aI343
atp441
Rp442
sI147
g1
((lp443
I120
aI1161
aI402
aI1198
aI657
atp444
Rp445
sI148
g1
((lp446
I882
aI851
aI581
aI1094
aI893
aI798
atp447
Rp448
sI149
g1
((lp449
I496
aI994
aI563
aI1236
aI1143
aI361
aI915
aI14
atp450
Rp451
sI150
g1
((lp452
I802
aI307
aI1238
aI567
aI1234
aI490
aI941
atp453
Rp454
sI151
g1
((lp455
I604
aI870
aI566
atp456
Rp457
sI152
g1
((lp458
I272
aI786
aI1094
aI519
atp459
Rp460
sI153
g1
((lp461
I112
aI416
aI387
aI673
aI1096
aI107
atp462
Rp463
sI154
g1
((lp464
I171
aI1069
aI510
aI709
atp465
Rp466
sI155
g1
((lp467
I960
aI1185
aI635
aI1053
aI935
atp468
Rp469
sI156
g1
((lp470
I896
aI992
aI803
aI732
aI374
atp471
Rp472
sI157
g1
((lp473
I241
aI1170
aI475
aI1140
aI885
aI774
aI603
aI841
aI347
atp474
Rp475
sI158
g1
((lp476
I32
aI848
aI466
aI1110
aI40
aI314
aI398
atp477
Rp478
sI159
g1
((lp479
I76
aI305
aI626
aI599
aI761
aI844
aI881
atp480
Rp481
sI160
g1
((lp482
I432
aI835
aI908
aI911
atp483
Rp484
sI161
g1
((lp485
I648
aI370
aI531
aI1041
aI726
aI454
aI247
aI23
aI1129
aI507
atp486
Rp487
sI162
g1
((lp488
I1171
aI484
aI101
aI1227
aI661
atp489
Rp490
sI163
g1
((lp491
I1099
aI797
aI1022
aI581
atp492
Rp493
sI164
g1
((lp494
I801
aI180
aI133
aI849
aI375
atp495
Rp496
sI165
g1
((lp497
I825
aI708
aI809
aI591
atp498
Rp499
sI166
g1
((lp500
I48
aI848
aI599
aI1195
aI588
aI478
aI991
atp501
Rp502
sI167
g1
((lp503
I73
aI1237
aI375
aI541
aI585
atp504
Rp505
sI168
g1
((lp506
I1121
aI666
aI93
aI358
aI479
atp507
Rp508
sI169
g1
((lp509
I576
aI629
aI103
atp510
Rp511
sI170
g1
((lp512
I914
aI853
aI446
aI389
atp513
Rp514
sI171
g1
((lp515
I320
aI640
aI243
aI214
aI760
aI154
aI188
aI989
atp516
Rp517
sI172
g1
((lp518
I224
aI66
aI711
aI876
aI368
aI337
aI915
aI216
aI787
aI250
aI955
aI506
atp519
Rp520
sI173
g1
((lp521
I912
aI1057
aI1027
aI1117
aI446
atp522
Rp523
sI174
g1
((lp524
I650
aI995
aI212
aI951
aI679
atp525
Rp526
sI175
g1
((lp527
I1024
aI972
aI967
aI860
aI816
atp528
Rp529
sI176
g1
((lp530
I896
aI307
aI85
aI701
atp531
Rp532
sI177
g1
((lp533
I224
aI101
aI233
aI696
aI713
aI139
aI485
atp534
Rp535
sI178
g1
((lp536
I402
aI436
aI367
atp537
Rp538
sI179
g1
((lp539
I444
aI1103
atp540
Rp541
sI180
g1
((lp542
I306
aI164
aI597
aI665
aI317
aI367
atp543
Rp544
sI181
g1
((lp545
I98
aI1127
aI409
aI191
aI622
aI207
atp546
Rp547
sI182
g1
((lp548
I608
aI1211
aI586
aI107
aI1148
aI845
aI397
atp549
Rp550
sI183
g1
((lp551
I80
aI130
aI676
aI729
aI428
aI1084
atp552
Rp553
sI184
g1
((lp554
I529
aI836
aI453
aI806
aI570
aI973
aI831
atp555
Rp556
sI185
g1
((lp557
I218
atp558
Rp559
sI186
g1
((lp560
I384
aI712
aI861
aI390
aI472
aI28
aI717
aI848
atp561
Rp562
sI187
g1
((lp563
I733
aI422
atp564
Rp565
sI188
g1
((lp566
I320
aI1035
aI35
aI116
aI246
aI825
aI171
atp567
Rp568
sI189
g1
((lp569
I672
aI1073
aI123
atp570
Rp571
sI190
g1
((lp572
I929
aI101
aI1013
atp573
Rp574
sI191
g1
((lp575
I306
aI355
aI836
aI181
aI1160
aI606
atp576
Rp577
sI192
g1
((lp578
I689
aI1106
aI1126
aI746
aI475
aI1133
atp579
Rp580
sI193
g1
((lp581
I216
atp582
Rp583
sI194
g1
((lp584
I621
aI262
atp585
Rp586
sI195
g1
((lp587
I240
aI1220
aI973
atp588
Rp589
sI196
g1
((lp590
I880
aI952
aI869
aI368
aI232
aI1198
atp591
Rp592
sI197
g1
((lp593
I992
aI369
aI834
aI1112
aI1178
aI108
atp594
Rp595
sI198
g1
((lp596
I1148
aI1174
aI935
aI748
aI714
aI316
aI398
atp597
Rp598
sI199
g1
((lp599
I400
aI305
aI886
aI1158
aI257
aI685
atp600
Rp601
sI200
g1
((lp602
I520
aI524
atp603
Rp604
sI201
g1
((lp605
I609
aI1146
aI1220
aI1125
atp606
Rp607
sI202
g1
((lp608
I448
aI296
aI950
aI8
aI1066
aI1103
aI958
aI783
atp609
Rp610
sI203
g1
((lp611
I299
aI130
aI59
aI1110
aI815
atp612
Rp613
sI204
g1
((lp614
I48
aI33
aI1075
aI1046
aI232
aI495
atp615
Rp616
sI205
g1
((lp617
I728
aI75
aI716
aI791
atp618
Rp619
sI206
g1
((lp620
I787
aI261
aI631
aI552
aI349
aI702
atp621
Rp622
sI207
g1
((lp623
I260
aI181
aI639
atp624
Rp625
sI208
g1
((lp626
I896
aI764
aI457
aI548
aI1072
atp627
Rp628
sI209
g1
((lp629
I1153
aI18
aI61
aI806
aI661
atp630
Rp631
sI210
g1
((lp632
I868
atp633
Rp634
sI211
g1
((lp635
I696
aI1010
aI948
aI1053
aI774
atp636
Rp637
sI212
g1
((lp638
I470
aI986
aI484
aI317
aI174
atp639
Rp640
sI213
g1
((lp641
I1224
aI1136
aI683
aI1070
aI1127
atp642
Rp643
sI214
g1
((lp644
I880
aI1009
aI171
aI933
aI27
aI318
atp645
Rp646
sI215
g1
((lp647
I1190
atp648
Rp649
sI216
g1
((lp650
I193
aI948
aI172
aI861
aI533
atp651
Rp652
sI217
g1
((lp653
I705
aI571
aI132
aI1157
aI359
aI586
aI619
atp654
Rp655
sI218
g1
((lp656
I648
aI185
aI690
aI590
aI278
atp657
Rp658
sI219
g1
((lp659
I834
aI1203
aI918
aI439
aI968
aI57
aI938
aI1051
aI1084
aI270
atp660
Rp661
sI220
g1
((lp662
I1199
aI804
aI654
aI527
atp663
Rp664
sI221
g1
((lp665
I1201
aI98
aI355
aI710
aI1142
aI1047
aI920
aI1195
aI861
atp666
Rp667
sI222
g1
((lp668
I1168
aI1025
aI1170
aI351
atp669
Rp670
sI223
g1
((lp671
I698
atp672
Rp673
sI224
g1
((lp674
I177
aI994
aI899
aI6
aI374
aI28
aI172
aI547
aI1157
atp675
Rp676
sI225
g1
((lp677
I96
aI544
aI625
aI592
aI697
aI750
atp678
Rp679
sI226
g1
((lp680
I881
aI1156
aI825
aI122
aI428
aI1085
atp681
Rp682
sI227
g1
((lp683
I872
aI388
aI1149
aI463
atp684
Rp685
sI228
g1
((lp686
I8
atp687
Rp688
sI229
g1
((lp689
I33
aI1187
aI1108
aI966
aI721
atp690
Rp691
sI230
g1
((lp692
I523
aI619
aI1172
aI1236
aI474
aI1147
aI92
aI398
aI239
atp693
Rp694
sI231
g1
((lp695
I504
aI283
aI971
aI606
aI423
atp696
Rp697
sI232
g1
((lp698
I1025
aI1042
aI1011
aI196
aI443
aI204
aI477
aI350
atp699
Rp700
sI233
g1
((lp701
I177
aI485
aI1193
aI829
aI1022
aI125
atp702
Rp703
sI234
g1
((lp704
I336
aI753
aI1067
aI661
aI822
atp705
Rp706
sI235
g1
((lp707
I1040
aI309
aI743
aI984
aI75
aI1215
atp708
Rp709
sI236
g1
((lp710
I912
aI1060
aI36
aI297
aI1015
atp711
Rp712
sI237
g1
((lp713
I569
aI562
aI955
aI1177
atp714
Rp715
sI238
g1
((lp716
I99
aI1092
aI1191
aI938
aI843
aI925
atp717
Rp718
sI239
g1
((lp719
I1136
aI369
aI802
aI230
aI408
aI713
aI270
aI47
atp720
Rp721
sI240
g1
((lp722
I144
aI369
aI195
atp723
Rp724
sI241
g1
((lp725
I475
aI157
aI135
atp726
Rp727
sI242
g1
((lp728
I1120
aI610
aI500
aI901
aI822
aI903
aI618
aI1015
atp729
Rp730
sI243
g1
((lp731
I64
aI451
aI325
aI439
aI171
aI1133
atp732
Rp733
sI244
g1
((lp734
I257
aI386
aI467
aI1076
aI22
aI760
aI879
aI895
atp735
Rp736
sI245
g1
((lp737
I465
aI337
aI281
aI618
aI747
aI460
aI297
atp738
Rp739
sI246
g1
((lp740
I40
aI561
aI188
aI788
aI1232
atp741
Rp742
sI247
g1
((lp743
I161
aI477
atp744
Rp745
sI248
g1
((lp746
I480
aI612
aI677
aI1032
aI1225
aI1008
aI776
aI530
aI595
aI439
aI414
atp747
Rp748
sI249
g1
((lp749
I776
aI281
aI371
aI1148
aI377
atp750
Rp751
sI250
g1
((lp752
I488
aI1057
aI172
aI1065
aI815
atp753
Rp754
sI251
g1
((lp755
I378
aI110
aI807
atp756
Rp757
sI252
g1
((lp758
I458
aI611
aI1213
aI14
atp759
Rp760
sI253
g1
((lp761
I928
aI535
aI735
atp762
Rp763
sI254
g1
((lp764
I107
aI587
aI275
aI843
aI686
aI863
atp765
Rp766
sI255
g1
((lp767
I324
aI693
aI87
aI936
aI905
aI891
atp768
Rp769
sI256
g1
((lp770
I780
aI996
aI517
aI758
atp771
Rp772
sI257
g1
((lp773
I1091
aI836
aI661
aI327
aI244
aI199
atp774
Rp775
sI258
g1
((lp776
I849
aI399
aI799
atp777
Rp778
sI259
g1
((lp779
I912
aI1018
aI1141
aI807
atp780
Rp781
sI260
g1
((lp782
I859
aI101
aI1003
aI813
aI207
aI319
atp783
Rp784
sI261
g1
((lp785
I497
aI819
aI1029
aI438
aI508
aI1053
aI206
aI733
atp786
Rp787
sI262
g1
((lp788
I194
aI27
atp789
Rp790
sI263
g1
((lp791
I1024
aI33
aI51
aI116
aI1076
aI269
aI110
atp792
Rp793
sI264
g1
((lp794
I1073
aI699
aI1212
aI615
atp795
Rp796
sI265
g1
((lp797
I876
aI314
aI524
aI986
aI415
atp798
Rp799
sI266
g1
((lp800
I1131
aI43
aI453
aI1079
atp801
Rp802
sI267
g1
((lp803
I604
aI541
aI438
atp804
Rp805
sI268
g1
((lp806
I272
aI640
aI611
aI980
aI1070
aI814
aI44
aI494
aI1039
atp807
Rp808
sI269
g1
((lp809
I832
aI1135
aI263
atp810
Rp811
sI270
g1
((lp812
I585
aI906
aI219
aI476
aI239
aI863
atp813
Rp814
sI271
g1
((lp815
I416
aI322
aI1099
aI615
aI455
aI670
atp816
Rp817
sI272
g1
((lp818
I328
aI1096
aI867
aI1105
aI152
aI268
aI683
aI604
atp819
Rp820
sI273
g1
((lp821
I3
atp822
Rp823
sI274
g1
((lp824
I56
aI962
atp825
Rp826
sI275
g1
((lp827
I954
aI254
atp828
Rp829
sI276
g1
((lp830
I497
aI1013
aI446
aI527
atp831
Rp832
sI277
g1
((lp833
I901
aI609
aI483
aI21
aI789
atp834
Rp835
sI278
g1
((lp836
I784
aI850
aI342
aI806
aI218
aI1222
atp837
Rp838
sI279
g1
((lp839
I442
aI29
atp840
Rp841
sI280
g1
((lp842
I48
aI515
aI134
aI649
aI1115
aI847
atp843
Rp844
sI281
g1
((lp845
I497
aI482
aI291
aI132
aI245
aI249
aI138
aI1042
atp846
Rp847
sI282
g1
((lp848
I104
aI75
aI84
aI494
atp849
Rp850
sI283
g1
((lp851
I576
aI779
aI141
aI231
atp852
Rp853
sI284
g1
((lp854
I715
aI404
atp855
Rp856
sI285
g1
((lp857
I886
aI671
atp858
Rp859
sI286
g1
((lp860
I634
aI1188
atp861
Rp862
sI287
g1
((lp863
I706
aI358
atp864
Rp865
sI288
g1
((lp866
I760
aI906
aI1226
aI1013
atp867
Rp868
sI289
g1
((lp869
I1238
aI294
aI519
aI55
aI13
aI351
atp870
Rp871
sI290
g1
((lp872
I546
aI846
aI101
aI422
aI474
aI498
aI302
atp873
Rp874
sI291
g1
((lp875
I281
aI794
aI1129
atp876
Rp877
sI292
g1
((lp878
I611
aI804
aI1181
aI1047
atp879
Rp880
sI293
g1
((lp881
I609
aI146
aI403
aI677
aI1223
aI1071
atp882
Rp883
sI294
g1
((lp884
I1016
aI289
aI1202
aI947
atp885
Rp886
sI295
g1
((lp887
I800
aI843
aI796
atp888
Rp889
sI296
g1
((lp890
I768
aI689
aI946
aI202
aI1183
aI861
aI623
atp891
Rp892
sI297
g1
((lp893
I786
aI67
aI245
aI1001
aI236
aI815
atp894
Rp895
sI298
g1
((lp896
I1181
aI673
aI61
aI841
aI999
atp897
Rp898
sI299
g1
((lp899
I945
aI502
aI727
aI328
aI203
aI766
aI319
atp900
Rp901
sI300
g1
((lp902
I608
aI850
aI1115
aI517
aI325
aI391
aI456
aI351
aI15
atp903
Rp904
sI301
g1
((lp905
I704
atp906
Rp907
sI302
g1
((lp908
I290
aI38
aI345
aI889
aI666
aI830
atp909
Rp910
sI303
g1
((lp911
I92
aI1149
atp912
Rp913
sI304
g1
((lp914
I1025
aI117
aI38
aI775
aI1174
aI543
atp915
Rp916
sI305
g1
((lp917
I370
aI1075
aI868
aI613
aI199
aI159
atp918
Rp919
sI306
g1
((lp920
I81
aI180
aI1150
aI342
aI191
atp921
Rp922
sI307
g1
((lp923
I176
aI497
aI540
aI150
aI1017
atp924
Rp925
sI308
g1
((lp926
I1065
aI1171
aI4
aI865
atp927
Rp928
sI309
g1
((lp929
I736
aI626
aI387
aI1132
aI235
aI780
atp930
Rp931
sI310
g1
((lp932
I720
aI820
aI69
aI566
aI983
aI1124
aI958
aI479
atp933
Rp934
sI311
g1
((lp935
I809
aI961
aI833
aI95
atp936
Rp937
sI312
g1
((lp938
I96
aI1162
aI701
atp939
Rp940
sI313
g1
((lp941
I799
aI1170
aI1179
aI535
atp942
Rp943
sI314
g1
((lp944
I265
aI555
aI158
aI1071
atp945
Rp946
sI315
g1
((lp947
I322
aI803
aI372
aI1112
aI900
aI499
atp948
Rp949
sI316
g1
((lp950
I198
aI1094
aI345
aI1225
aI1223
aI853
atp951
Rp952
sI317
g1
((lp953
I624
aI98
aI947
aI212
aI1205
aI455
aI180
aI826
atp954
Rp955
sI318
g1
((lp956
I113
aI876
aI214
atp957
Rp958
sI319
g1
((lp959
I114
aI260
aI797
aI54
aI7
aI299
aI765
aI1166
aI415
atp960
Rp961
sI320
g1
((lp962
I848
aI580
aI1141
aI918
aI171
aI188
atp963
Rp964
sI321
g1
((lp965
I1152
aI673
aI537
aI617
aI361
aI923
aI1004
aI1181
aI639
atp966
Rp967
sI322
g1
((lp968
I578
aI361
aI315
aI813
aI478
aI271
atp969
Rp970
sI323
g1
((lp971
I528
aI116
aI20
aI729
aI996
aI829
aI414
aI1120
atp972
Rp973
sI324
g1
((lp974
I592
aI608
aI932
aI55
aI671
aI255
atp975
Rp976
sI325
g1
((lp977
I956
aI243
aI300
aI1025
aI993
atp978
Rp979
sI326
g1
((lp980
I97
aI684
aI61
aI974
aI1185
atp981
Rp982
sI327
g1
((lp983
I257
aI994
aI1004
aI717
atp984
Rp985
sI328
g1
((lp986
I272
aI896
aI884
aI838
aI68
aI299
aI541
atp987
Rp988
sI329
g1
((lp989
I929
aI131
aI797
atp990
Rp991
sI330
g1
((lp992
I1085
aI1196
aI557
aI623
atp993
Rp994
sI331
g1
((lp995
I512
aI473
aI1228
aI470
aI816
atp996
Rp997
sI332
g1
((lp998
I531
aI996
aI723
aI1176
aI718
aI483
atp999
Rp1000
sI333
g1
((lp1001
I656
aI862
aI1093
aI111
aI457
aI603
aI46
aI31
atp1002
Rp1003
sI334
g1
((lp1004
I706
aI755
aI1181
aI694
atp1005
Rp1006
sI335
g1
((lp1007
I577
aI771
atp1008
Rp1009
sI336
g1
((lp1010
I234
aI1020
atp1011
Rp1012
sI337
g1
((lp1013
I921
aI245
aI343
aI1022
aI1071
aI172
aI750
aI415
atp1014
Rp1015
sI338
g1
((lp1016
tp1017
Rp1018
sI339
g1
((lp1019
I571
aI131
aI45
aI446
aI973
atp1020
Rp1021
sI340
g1
((lp1022
I616
aI732
aI677
atp1023
Rp1024
sI341
g1
((lp1025
I1112
aI1209
aI1082
aI119
atp1026
Rp1027
sI342
g1
((lp1028
I1161
aI306
aI124
aI278
atp1029
Rp1030
sI343
g1
((lp1031
I337
aI146
aI883
aI820
aI1016
aI971
aI366
atp1032
Rp1033
sI344
g1
((lp1034
I370
aI927
aI839
aI458
aI651
aI700
aI671
atp1035
Rp1036
sI345
g1
((lp1037
I475
aI316
aI469
aI302
atp1038
Rp1039
sI346
g1
((lp1040
I1088
aI839
aI1046
aI351
atp1041
Rp1042
sI347
g1
((lp1043
I688
aI26
aI461
aI157
aI1079
atp1044
Rp1045
sI348
g1
((lp1046
I656
aI565
aI1064
aI9
aI909
aI773
atp1047
Rp1048
sI349
g1
((lp1049
I899
aI1065
aI983
aI952
aI809
aI206
atp1050
Rp1051
sI350
g1
((lp1052
I1141
aI678
aI711
aI232
aI1228
aI511
atp1053
Rp1054
sI351
g1
((lp1055
I289
aI868
aI985
aI346
aI875
aI300
aI1037
aI222
atp1056
Rp1057
sI352
g1
((lp1058
I16
aI1025
aI391
aI424
aI1177
aI124
aI1085
aI703
atp1059
Rp1060
sI353
g1
((lp1061
I121
aI1090
aI567
atp1062
Rp1063
sI354
g1
((lp1064
I1096
aI499
aI516
aI805
aI104
aI585
aI1165
atp1065
Rp1066
sI355
g1
((lp1067
I36
aI933
aI119
aI474
aI1183
aI221
aI191
atp1068
Rp1069
sI356
g1
((lp1070
I627
aI20
aI742
aI1097
aI713
aI858
atp1071
Rp1072
sI357
g1
((lp1073
I1009
aI1026
aI934
aI577
aI631
aI574
aI1119
atp1074
Rp1075
sI358
g1
((lp1076
I1080
aI1154
aI996
aI168
aI564
aI824
aI494
aI287
atp1077
Rp1078
sI359
g1
((lp1079
I536
aI217
aI827
atp1080
Rp1081
sI360
g1
((lp1082
I443
aI95
atp1083
Rp1084
sI361
g1
((lp1085
I321
aI322
aI149
aI1033
aI1013
aI1135
atp1086
Rp1087
sI362
g1
((lp1088
I816
aI900
aI829
atp1089
Rp1090
sI363
g1
((lp1091
I962
aI569
aI89
aI1161
aI695
aI1038
atp1092
Rp1093
sI364
g1
((lp1094
I11
aI508
aI1165
aI1142
atp1095
Rp1096
sI365
g1
((lp1097
I472
aI370
aI709
atp1098
Rp1099
sI366
g1
((lp1100
I1104
aI1156
aI343
aI122
aI107
aI637
atp1101
Rp1102
sI367
g1
((lp1103
I178
aI180
aI718
aI22
atp1104
Rp1105
sI368
g1
((lp1106
I528
aI196
aI684
aI172
aI1213
atp1107
Rp1108
sI369
g1
((lp1109
I240
aI1202
aI197
aI1132
aI75
aI604
aI239
atp1110
Rp1111
sI370
g1
((lp1112
I161
aI452
aI999
aI535
aI365
aI942
aI305
aI660
aI663
aI344
aI92
atp1113
Rp1114
sI371
g1
((lp1115
I249
aI82
aI1111
aI853
aI681
atp1116
Rp1117
sI372
g1
((lp1118
I1051
aI761
aI315
aI1110
aI681
atp1119
Rp1120
sI373
g1
((lp1121
I449
atp1122
Rp1123
sI374
g1
((lp1124
I224
aI762
aI795
aI156
aI879
atp1125
Rp1126
sI375
g1
((lp1127
I753
aI164
aI925
aI134
aI167
atp1128
Rp1129
sI376
g1
((lp1130
I665
aI1189
aI1110
aI857
atp1131
Rp1132
sI377
g1
((lp1133
I1152
aI249
aI965
aI630
aI1071
atp1134
Rp1135
sI378
g1
((lp1136
I492
aI251
aI12
aI1110
aI763
atp1137
Rp1138
sI379
g1
((lp1139
I692
aI805
aI558
atp1140
Rp1141
sI380
g1
((lp1142
I993
aI1122
aI580
aI1162
atp1143
Rp1144
sI381
g1
((lp1145
I946
aI142
atp1146
Rp1147
sI382
g1
((lp1148
I1027
aI420
aI1159
atp1149
Rp1150
sI383
g1
((lp1151
I384
aI1153
aI1107
aI1028
aI613
aI1142
aI830
atp1152
Rp1153
sI384
g1
((lp1154
I417
aI993
aI808
aI186
aI574
aI383
atp1155
Rp1156
sI385
g1
((lp1157
I1104
aI1231
aI1055
aI950
aI991
atp1158
Rp1159
sI386
g1
((lp1160
I916
aI90
aI244
atp1161
Rp1162
sI387
g1
((lp1163
I309
aI153
aI1067
aI572
aI574
aI927
atp1164
Rp1165
sI388
g1
((lp1166
I227
aI460
atp1167
Rp1168
sI389
g1
((lp1169
I862
aI773
aI904
aI170
aI843
aI734
aI607
atp1170
Rp1171
sI390
g1
((lp1172
I41
aI186
aI412
aI98
aI809
atp1173
Rp1174
sI391
g1
((lp1175
I48
aI352
aI867
aI570
aI300
aI397
aI863
atp1176
Rp1177
sI392
g1
((lp1178
I482
aI818
aI117
aI937
aI411
aI525
aI654
atp1179
Rp1180
sI393
g1
((lp1181
I838
atp1182
Rp1183
sI394
g1
((lp1184
I1164
aI819
aI923
aI1067
atp1185
Rp1186
sI395
g1
((lp1187
I770
aI1149
aI1170
atp1188
Rp1189
sI396
g1
((lp1190
I1080
aI1162
aI1077
aI1046
atp1191
Rp1192
sI397
g1
((lp1193
I993
aI499
aI182
aI391
aI552
aI841
aI636
aI14
atp1194
Rp1195
sI398
g1
((lp1196
I1104
aI230
aI1142
aI198
aI537
aI1232
aI158
atp1197
Rp1198
sI399
g1
((lp1199
I489
aI258
aI988
aI1026
atp1200
Rp1201
sI400
g1
((lp1202
I945
aI947
aI773
aI1061
aI199
aI473
aI1050
aI1159
aI847
atp1203
Rp1204
sI401
g1
((lp1205
I545
aI1082
aI619
aI1204
atp1206
Rp1207
sI402
g1
((lp1208
I448
aI178
aI1027
aI147
aI1225
aI52
atp1209
Rp1210
sI403
g1
((lp1211
I1210
aI644
aI293
atp1212
Rp1213
sI404
g1
((lp1214
I114
aI284
aI61
atp1215
Rp1216
sI405
g1
((lp1217
I960
aI449
aI620
aI581
atp1218
Rp1219
sI406
g1
((lp1220
I624
aI1008
aI578
aI579
aI997
aI569
aI89
aI141
aI990
atp1221
Rp1222
sI407
g1
((lp1223
I411
aI789
aI78
atp1224
Rp1225
sI408
g1
((lp1226
I722
aI84
aI239
aI1020
aI1213
aI1054
aI509
atp1227
Rp1228
sI409
g1
((lp1229
I181
aI902
aI1119
atp1230
Rp1231
sI410
g1
((lp1232
I473
aI1066
aI43
atp1233
Rp1234
sI411
g1
((lp1235
I392
aI458
aI490
aI1162
aI407
atp1236
Rp1237
sI412
g1
((lp1238
I672
aI497
aI964
aI390
aI1017
aI1034
aI619
aI862
aI596
atp1239
Rp1240
sI413
g1
((lp1241
I418
aI69
aI1143
aI8
aI650
aI123
aI734
atp1242
Rp1243
sI414
g1
((lp1244
I248
aI323
aI652
aI1183
atp1245
Rp1246
sI415
g1
((lp1247
I656
aI657
aI981
aI70
aI337
aI265
aI1121
aI319
atp1248
Rp1249
sI416
g1
((lp1250
I481
aI1215
aI153
aI271
aI765
aI783
atp1251
Rp1252
sI417
g1
((lp1253
I384
aI760
aI500
aI552
atp1254
Rp1255
sI418
g1
((lp1256
I797
aI1028
aI13
aI1102
aI413
atp1257
Rp1258
sI419
g1
((lp1259
I624
aI1144
aI886
atp1260
Rp1261
sI420
g1
((lp1262
I1060
aI59
aI915
aI525
aI382
atp1263
Rp1264
sI421
g1
((lp1265
tp1266
Rp1267
sI422
g1
((lp1268
I976
aI994
aI290
aI470
aI502
aI187
aI989
aI1237
atp1269
Rp1270
sI423
g1
((lp1271
I783
aI769
aI883
aI231
atp1272
Rp1273
sI424
g1
((lp1274
I352
aI1196
aI436
aI86
aI1159
atp1275
Rp1276
sI425
g1
((lp1277
I1027
aI628
aI1014
aI776
aI44
aI1101
atp1278
Rp1279
sI426
g1
((lp1280
I858
aI934
aI807
aI554
aI139
aI780
aI829
aI79
atp1281
Rp1282
sI427
g1
((lp1283
I793
aI835
atp1284
Rp1285
sI428
g1
((lp1286
I226
aI1141
aI36
aI621
aI183
atp1287
Rp1288
sI429
g1
((lp1289
I1049
aI76
aI7
atp1290
Rp1291
sI430
g1
((lp1292
I728
aI823
aI39
aI1013
aI79
atp1293
Rp1294
sI431
g1
((lp1295
I840
aI841
aI941
aI1063
atp1296
Rp1297
sI432
g1
((lp1298
I160
aI90
aI614
aI103
atp1299
Rp1300
sI433
g1
((lp1301
I848
aI827
aI505
aI489
aI143
aI1164
aI972
aI799
atp1302
Rp1303
sI434
g1
((lp1304
I1228
atp1305
Rp1306
sI435
g1
((lp1307
I105
aI529
aI1061
aI465
atp1308
Rp1309
sI436
g1
((lp1310
I722
aI809
aI424
aI738
aI178
aI703
atp1311
Rp1312
sI437
g1
((lp1313
I480
aI754
aI670
aI767
aI1010
aI1006
aI527
atp1314
Rp1315
sI438
g1
((lp1316
I267
aI788
aI261
atp1317
Rp1318
sI439
g1
((lp1319
I243
aI117
aI535
aI248
aI219
aI971
atp1320
Rp1321
sI440
g1
((lp1322
I649
aI42
aI708
aI558
aI737
atp1323
Rp1324
sI441
g1
((lp1325
I841
aI970
aI587
aI711
atp1326
Rp1327
sI442
g1
((lp1328
I1104
aI120
aI603
aI1072
aI710
aI1191
aI104
aI279
atp1329
Rp1330
sI443
g1
((lp1331
I232
aI360
aI683
aI988
atp1332
Rp1333
sI444
g1
((lp1334
I992
aI611
aI179
aI862
aI56
aI766
atp1335
Rp1336
sI445
g1
((lp1337
I761
aI594
aI820
aI686
aI1183
atp1338
Rp1339
sI446
g1
((lp1340
I554
aI994
aI339
aI276
aI170
aI173
aI622
atp1341
Rp1342
sI447
g1
((lp1343
I960
aI57
aI1099
aI595
atp1344
Rp1345
sI448
g1
((lp1346
I513
aI202
aI402
aI1127
atp1347
Rp1348
sI449
g1
((lp1349
I373
aI405
atp1350
Rp1351
sI450
g1
((lp1352
I721
aI1206
aI937
aI463
atp1353
Rp1354
sI451
g1
((lp1355
I778
aI243
aI1196
aI642
atp1356
Rp1357
sI452
g1
((lp1358
I370
aI572
aI765
aI1111
atp1359
Rp1360
sI453
g1
((lp1361
I184
aI266
aI562
atp1362
Rp1363
sI454
g1
((lp1364
I80
aI161
aI1042
aI1237
aI1201
aI750
atp1365
Rp1366
sI455
g1
((lp1367
I707
aI132
aI698
aI317
aI1118
aI271
atp1368
Rp1369
sI456
g1
((lp1370
I816
aI501
aI775
aI633
aI538
aI300
aI725
atp1371
Rp1372
sI457
g1
((lp1373
I208
aI915
aI983
aI1087
aI571
aI125
aI333
atp1374
Rp1375
sI458
g1
((lp1376
I513
aI1000
aI344
aI1033
aI411
aI252
aI1192
atp1377
Rp1378
sI459
g1
((lp1379
I849
aI875
aI981
atp1380
Rp1381
sI460
g1
((lp1382
I1073
aI388
aI245
aI942
aI1236
aI999
aI731
aI462
atp1383
Rp1384
sI461
g1
((lp1385
I664
aI347
aI1181
aI646
atp1386
Rp1387
sI462
g1
((lp1388
I547
aI954
aI19
aI460
aI534
atp1389
Rp1390
sI463
g1
((lp1391
I855
aI450
aI227
aI1055
atp1392
Rp1393
sI464
g1
((lp1394
I486
atp1395
Rp1396
sI465
g1
((lp1397
I130
aI435
aI245
atp1398
Rp1399
sI466
g1
((lp1400
I889
aI855
aI651
aI158
aI569
atp1401
Rp1402
sI467
g1
((lp1403
I515
aI1120
aI803
aI244
aI647
aI1225
aI916
aI1071
aI468
aI15
atp1404
Rp1405
sI468
g1
((lp1406
I879
aI467
aI87
atp1407
Rp1408
sI469
g1
((lp1409
I689
aI738
aI724
aI615
aI345
aI1217
aI786
aI1053
atp1410
Rp1411
sI470
g1
((lp1412
I580
aI1088
aI212
aI422
aI1225
aI884
aI778
aI331
aI828
atp1413
Rp1414
sI471
g1
((lp1415
I832
aI1158
aI855
aI55
aI663
aI1214
atp1416
Rp1417
sI472
g1
((lp1418
I600
aI881
aI186
aI365
atp1419
Rp1420
sI473
g1
((lp1421
I400
aI410
aI331
atp1422
Rp1423
sI474
g1
((lp1424
I112
aI1040
aI290
aI355
aI230
atp1425
Rp1426
sI475
g1
((lp1427
I192
aI612
aI104
aI1165
aI861
aI241
aI1012
aI345
aI580
aI157
aI606
atp1428
Rp1429
sI476
g1
((lp1430
I1034
aI75
aI508
aI778
aI270
atp1431
Rp1432
sI477
g1
((lp1433
I1075
aI1060
aI534
aI247
aI232
aI607
atp1434
Rp1435
sI478
g1
((lp1436
I481
aI322
aI949
aI1126
aI903
aI166
atp1437
Rp1438
sI479
g1
((lp1439
I531
aI310
aI1078
aI935
aI168
aI554
atp1440
Rp1441
sI480
g1
((lp1442
I656
aI728
aI1156
aI437
aI248
aI703
aI620
aI687
atp1443
Rp1444
sI481
g1
((lp1445
I416
aI1124
aI622
aI478
atp1446
Rp1447
sI482
g1
((lp1448
I392
aI281
aI592
atp1449
Rp1450
sI483
g1
((lp1451
I928
aI1089
aI1145
aI277
aI969
aI120
aI140
aI602
aI332
aI1162
atp1452
Rp1453
sI484
g1
((lp1454
I162
aI212
atp1455
Rp1456
sI485
g1
((lp1457
I233
aI545
aI177
atp1458
Rp1459
sI486
g1
((lp1460
I464
aI882
aI710
aI728
aI857
aI810
aI783
atp1461
Rp1462
sI487
g1
((lp1463
I993
aI1190
atp1464
Rp1465
sI488
g1
((lp1466
I496
aI250
aI635
aI1045
aI637
atp1467
Rp1468
sI489
g1
((lp1469
I433
aI591
aI732
aI1003
aI399
atp1470
Rp1471
sI490
g1
((lp1472
I1185
aI146
aI150
aI855
aI680
aI411
aI1151
atp1473
Rp1474
sI491
g1
((lp1475
I1208
aI122
aI35
aI607
atp1476
Rp1477
sI492
g1
((lp1478
I985
aI378
aI826
aI746
aI822
atp1479
Rp1480
sI493
g1
((lp1481
I128
aI21
aI536
aI122
aI828
aI78
atp1482
Rp1483
sI494
g1
((lp1484
I890
aI644
aI358
aI282
aI268
aI653
aI1150
aI31
atp1485
Rp1486
sI495
g1
((lp1487
I204
aI87
atp1488
Rp1489
sI496
g1
((lp1490
I488
aI602
aI858
aI149
aI582
atp1491
Rp1492
sI497
g1
((lp1493
I307
aI276
aI261
aI281
aI1087
aI412
aI1077
aI1230
aI556
atp1494
Rp1495
sI498
g1
((lp1496
I552
aI290
atp1497
Rp1498
sI499
g1
((lp1499
I544
aI354
aI315
aI397
aI898
atp1500
Rp1501
sI500
g1
((lp1502
I417
aI242
aI527
aI508
aI526
aI735
atp1503
Rp1504
sI501
g1
((lp1505
I104
aI456
aI790
atp1506
Rp1507
sI502
g1
((lp1508
I768
aI299
aI974
aI422
atp1509
Rp1510
sI503
g1
((lp1511
I526
aI731
aI44
aI5
aI126
atp1512
Rp1513
sI504
g1
((lp1514
I923
aI564
aI1077
aI647
aI74
aI231
aI719
atp1515
Rp1516
sI505
g1
((lp1517
I104
aI433
aI764
aI709
aI804
atp1518
Rp1519
sI506
g1
((lp1520
I1153
aI692
aI133
aI670
aI172
aI766
atp1521
Rp1522
sI507
g1
((lp1523
I161
aI539
aI22
aI511
atp1524
Rp1525
sI508
g1
((lp1526
I1172
aI500
aI261
aI918
aI8
aI476
aI364
aI1206
aI1174
aI572
atp1527
Rp1528
sI509
g1
((lp1529
I408
aI649
aI514
aI1013
aI1231
atp1530
Rp1531
sI510
g1
((lp1532
I1128
aI673
aI154
aI524
aI114
atp1533
Rp1534
sI511
g1
((lp1535
I994
aI507
aI350
aI86
aI755
atp1536
Rp1537
sI512
g1
((lp1538
I555
aI706
aI331
aI868
aI85
atp1539
Rp1540
sI513
g1
((lp1541
I448
aI458
aI124
atp1542
Rp1543
sI514
g1
((lp1544
I97
aI980
aI886
aI825
aI75
aI1020
aI509
atp1545
Rp1546
sI515
g1
((lp1547
I82
aI467
aI1171
aI5
aI280
aI787
aI1018
atp1548
Rp1549
sI516
g1
((lp1550
I354
aI1045
aI1063
aI1162
aI587
aI141
aI894
atp1551
Rp1552
sI517
g1
((lp1553
I256
aI300
atp1554
Rp1555
sI518
g1
((lp1556
I816
aI871
aI905
aI47
aI1149
aI1215
atp1557
Rp1558
sI519
g1
((lp1559
I152
aI289
aI686
aI1201
atp1560
Rp1561
sI520
g1
((lp1562
I114
aI1155
aI118
aI200
aI1129
aI1034
aI828
atp1563
Rp1564
sI521
g1
((lp1565
I1217
aI1131
aI53
aI671
atp1566
Rp1567
sI522
g1
((lp1568
I1226
aI638
aI103
atp1569
Rp1570
sI523
g1
((lp1571
I1161
aI790
aI701
aI230
aI1225
atp1572
Rp1573
sI524
g1
((lp1574
I200
aI265
aI510
aI31
atp1575
Rp1576
sI525
g1
((lp1577
I776
aI420
aI534
aI392
aI634
aI974
atp1578
Rp1579
sI526
g1
((lp1580
I50
aI500
aI503
aI1112
aI1113
aI682
aI620
atp1581
Rp1582
sI527
g1
((lp1583
I881
aI1058
aI1129
aI20
aI437
aI727
aI276
aI10
aI220
aI500
atp1584
Rp1585
sI528
g1
((lp1586
I32
aI368
aI1042
aI323
aI1195
aI1078
aI1200
atp1587
Rp1588
sI529
g1
((lp1589
I184
aI1010
aI107
aI435
aI838
atp1590
Rp1591
sI530
g1
((lp1592
I248
aI1076
aI684
atp1593
Rp1594
sI531
g1
((lp1595
I161
aI1154
aI726
aI577
aI1226
aI332
aI479
atp1596
Rp1597
sI532
g1
((lp1598
tp1599
Rp1600
sI533
g1
((lp1601
I216
aI747
aI741
atp1602
Rp1603
sI534
g1
((lp1604
I864
aI1200
aI1219
aI24
aI1129
aI602
aI477
aI462
aI525
atp1605
Rp1606
sI535
g1
((lp1607
I313
aI26
aI370
aI253
aI439
atp1608
Rp1609
sI536
g1
((lp1610
I72
aI138
aI493
aI29
aI359
atp1611
Rp1612
sI537
g1
((lp1613
I321
aI579
aI804
aI872
aI61
aI398
atp1614
Rp1615
sI538
g1
((lp1616
I456
aI146
aI870
atp1617
Rp1618
sI539
g1
((lp1619
I953
aI507
aI135
aI103
atp1620
Rp1621
sI540
g1
((lp1622
I932
aI307
aI43
aI708
aI646
atp1623
Rp1624
sI541
g1
((lp1625
I328
aI267
aI54
aI167
atp1626
Rp1627
sI542
g1
((lp1628
I722
aI20
aI549
aI647
aI695
aI717
atp1629
Rp1630
sI543
g1
((lp1631
I304
aI572
aI571
aI116
aI719
atp1632
Rp1633
sI544
g1
((lp1634
I225
aI499
aI981
aI758
atp1635
Rp1636
sI545
g1
((lp1637
I568
aI105
aI485
aI846
aI401
atp1638
Rp1639
sI546
g1
((lp1640
I768
aI113
aI290
aI693
aI953
aI734
atp1641
Rp1642
sI547
g1
((lp1643
I224
aI753
aI69
aI664
aI1081
aI462
atp1644
Rp1645
sI548
g1
((lp1646
I208
aI122
aI814
aI943
atp1647
Rp1648
sI549
g1
((lp1649
I1225
aI562
aI755
aI542
atp1650
Rp1651
sI550
g1
((lp1652
I1068
aI1183
atp1653
Rp1654
sI551
g1
((lp1655
I1081
aI723
aI1063
atp1656
Rp1657
sI552
g1
((lp1658
I417
aI498
aI789
aI721
aI397
aI206
atp1659
Rp1660
sI553
g1
((lp1661
I666
aI995
aI1205
aI127
atp1662
Rp1663
sI554
g1
((lp1664
I426
aI829
aI590
aI446
aI479
atp1665
Rp1666
sI555
g1
((lp1667
I512
aI314
aI871
aI922
aI607
atp1668
Rp1669
sI556
g1
((lp1670
I24
aI497
aI906
aI680
atp1671
Rp1672
sI557
g1
((lp1673
I330
aI1199
aI1141
aI878
aI941
atp1674
Rp1675
sI558
g1
((lp1676
I440
aI1220
aI709
aI104
aI89
aI1176
aI379
aI824
atp1677
Rp1678
sI559
g1
((lp1679
I1178
aI989
aI943
atp1680
Rp1681
sI560
g1
((lp1682
I1211
aI669
aI1007
atp1683
Rp1684
sI561
g1
((lp1685
I246
atp1686
Rp1687
sI562
g1
((lp1688
I549
aI1058
aI453
aI237
atp1689
Rp1690
sI563
g1
((lp1691
I850
aI963
aI149
atp1692
Rp1693
sI564
g1
((lp1694
I504
aI848
aI1179
aI358
aI1024
atp1695
Rp1696
sI565
g1
((lp1697
I1080
aI780
aI348
aI870
atp1698
Rp1699
sI566
g1
((lp1700
I608
aI1105
aI310
aI902
aI151
aI1068
atp1701
Rp1702
sI567
g1
((lp1703
I353
aI964
aI845
aI150
aI39
atp1704
Rp1705
sI568
g1
((lp1706
I545
aI708
aI716
aI1231
atp1707
Rp1708
sI569
g1
((lp1709
I466
aI363
aI237
aI406
aI741
atp1710
Rp1711
sI570
g1
((lp1712
I1186
aI117
aI391
aI184
aI1068
aI750
atp1713
Rp1714
sI571
g1
((lp1715
I937
aI1091
aI339
aI457
aI217
aI543
atp1716
Rp1717
sI572
g1
((lp1718
I387
aI20
aI23
aI508
aI762
aI44
aI452
aI841
aI543
atp1719
Rp1720
sI573
g1
((lp1721
I834
aI1111
atp1722
Rp1723
sI574
g1
((lp1724
I384
aI1178
aI387
aI357
aI941
atp1725
Rp1726
sI575
g1
((lp1727
I1176
aI948
aI1103
atp1728
Rp1729
sI576
g1
((lp1730
I169
aI914
aI283
aI980
aI881
atp1731
Rp1732
sI577
g1
((lp1733
I802
aI531
aI668
aI357
aI335
atp1734
Rp1735
sI578
g1
((lp1736
I322
aI76
aI406
atp1737
Rp1738
sI579
g1
((lp1739
I965
aI406
aI617
aI537
aI1083
aI782
atp1740
Rp1741
sI580
g1
((lp1742
I320
aI738
aI470
aI679
aI475
aI380
aI1197
aI941
atp1743
Rp1744
sI581
g1
((lp1745
I163
aI148
aI117
aI405
atp1746
Rp1747
sI582
g1
((lp1748
I496
aI748
atp1749
Rp1750
sI583
g1
((lp1751
I1088
aI938
aI779
aI1204
atp1752
Rp1753
sI584
g1
((lp1754
I1139
aI1218
aI1059
aI596
aI1097
aI1132
atp1755
Rp1756
sI585
g1
((lp1757
I354
aI803
aI686
aI167
aI856
aI1005
aI610
aI270
aI671
atp1758
Rp1759
sI586
g1
((lp1760
I217
aI771
aI1094
aI182
aI1197
atp1761
Rp1762
sI587
g1
((lp1763
I752
aI897
aI516
aI86
aI839
aI441
aI1115
aI1132
aI254
atp1764
Rp1765
sI588
g1
((lp1766
I910
aI166
atp1767
Rp1768
sI589
g1
((lp1769
I753
aI90
aI783
aI95
atp1770
Rp1771
sI590
g1
((lp1772
I80
aI554
aI52
aI218
atp1773
Rp1774
sI591
g1
((lp1775
I165
aI1129
aI489
aI1019
aI857
aI1055
atp1776
Rp1777
sI592
g1
((lp1778
I225
aI482
aI1059
aI324
aI696
aI1135
aI904
aI686
aI879
atp1779
Rp1780
sI593
g1
((lp1781
I728
aI683
aI678
aI718
atp1782
Rp1783
sI594
g1
((lp1784
I84
aI445
atp1785
Rp1786
sI595
g1
((lp1787
I1153
aI248
aI1116
aI1099
aI1164
aI447
atp1788
Rp1789
sI596
g1
((lp1790
I1232
aI787
aI916
aI584
aI698
aI412
aI925
atp1791
Rp1792
sI597
g1
((lp1793
I889
aI180
aI765
aI876
atp1794
Rp1795
sI598
g1
((lp1796
I1036
aI1170
aI892
aI1174
aI1225
atp1797
Rp1798
sI599
g1
((lp1799
I793
aI947
aI1171
aI166
aI159
atp1800
Rp1801
sI600
g1
((lp1802
I472
aI1058
aI1138
atp1803
Rp1804
sI601
g1
((lp1805
I1088
aI652
aI847
atp1806
Rp1807
sI602
g1
((lp1808
I496
aI880
aI483
aI740
aI534
aI1131
aI61
atp1809
Rp1810
sI603
g1
((lp1811
I114
aI1218
aI442
aI1115
aI1148
aI333
aI686
aI157
atp1812
Rp1813
sI604
g1
((lp1814
I272
aI369
aI35
aI151
aI267
aI1181
aI1055
atp1815
Rp1816
sI605
g1
((lp1817
I1098
aI723
aI1195
atp1818
Rp1819
sI606
g1
((lp1820
I1120
aI475
aI231
aI777
aI634
aI727
aI109
aI191
atp1821
Rp1822
sI607
g1
((lp1823
I49
aI555
aI1060
aI389
aI667
aI491
aI844
aI477
aI687
atp1824
Rp1825
sI608
g1
((lp1826
I1010
aI324
aI182
aI566
aI922
aI300
aI831
atp1827
Rp1828
sI609
g1
((lp1829
I1059
aI619
aI277
aI201
aI890
aI1163
aI892
aI1231
aI293
atp1830
Rp1831
sI610
g1
((lp1832
I737
aI242
aI52
aI854
aI977
aI585
aI670
atp1833
Rp1834
sI611
g1
((lp1835
I292
aI444
aI252
aI790
aI268
atp1836
Rp1837
sI612
g1
((lp1838
I1216
aI248
aI1043
aI779
aI823
aI56
aI649
aI475
aI800
atp1839
Rp1840
sI613
g1
((lp1841
I305
aI383
atp1842
Rp1843
sI614
g1
((lp1844
I432
aI1177
aI1175
atp1845
Rp1846
sI615
g1
((lp1847
I920
aI469
aI264
aI271
aI669
aI879
atp1848
Rp1849
sI616
g1
((lp1850
I340
aI1183
atp1851
Rp1852
sI617
g1
((lp1853
I928
aI321
aI98
aI579
aI1138
aI1209
aI1082
aI1036
aI738
atp1854
Rp1855
sI618
g1
((lp1856
I242
aI245
atp1857
Rp1858
sI619
g1
((lp1859
I609
aI787
aI230
aI401
aI217
aI705
aI412
aI686
atp1860
Rp1861
sI620
g1
((lp1862
I480
aI405
aI526
atp1863
Rp1864
sI621
g1
((lp1865
I112
aI194
aI428
aI757
atp1866
Rp1867
sI622
g1
((lp1868
I481
aI181
aI446
atp1869
Rp1870
sI623
g1
((lp1871
I132
aI1077
aI806
aI296
aI330
aI109
aI938
atp1872
Rp1873
sI624
g1
((lp1874
I961
aI419
aI100
aI406
aI891
aI317
aI1163
atp1875
Rp1876
sI625
g1
((lp1877
I728
aI225
aI626
aI36
aI1207
atp1878
Rp1879
sI626
g1
((lp1880
I768
aI625
aI791
aI309
aI159
atp1881
Rp1882
sI627
g1
((lp1883
I712
aI356
aI725
aI22
aI87
aI696
aI1127
aI823
aI718
atp1884
Rp1885
sI628
g1
((lp1886
I736
aI425
aI920
aI790
aI102
atp1887
Rp1888
sI629
g1
((lp1889
I89
aI1233
aI1147
aI860
aI169
atp1890
Rp1891
sI630
g1
((lp1892
I377
aI1199
atp1893
Rp1894
sI631
g1
((lp1895
I144
aI1090
aI1235
aI357
aI663
aI835
aI882
aI206
atp1896
Rp1897
sI632
g1
((lp1898
I1073
aI67
aI662
atp1899
Rp1900
sI633
g1
((lp1901
I456
aI820
aI747
aI28
atp1902
Rp1903
sI634
g1
((lp1904
I852
aI286
aI1006
aI525
aI606
aI773
atp1905
Rp1906
sI635
g1
((lp1907
I849
aI726
aI935
aI488
aI155
aI684
aI1054
aI929
atp1908
Rp1909
sI636
g1
((lp1910
I768
aI113
aI397
aI47
atp1911
Rp1912
sI637
g1
((lp1913
I488
aI1011
aI1179
aI366
atp1914
Rp1915
sI638
g1
((lp1916
I1220
aI522
aI44
aI853
atp1917
Rp1918
sI639
g1
((lp1919
I321
aI722
aI701
aI207
atp1920
Rp1921
sI640
g1
((lp1922
I1059
aI171
aI268
aI1189
aI1212
atp1923
Rp1924
sI641
g1
((lp1925
I748
aI932
aI1220
aI1124
aI1083
atp1926
Rp1927
sI642
g1
((lp1928
I451
aI716
atp1929
Rp1930
sI643
g1
((lp1931
I1001
aI898
aI717
atp1932
Rp1933
sI644
g1
((lp1934
I403
aI1187
aI727
aI824
aI682
aI1215
aI494
aI927
atp1935
Rp1936
sI645
g1
((lp1937
I860
aI942
aI1231
atp1938
Rp1939
sI646
g1
((lp1940
I905
aI540
aI461
atp1941
Rp1942
sI647
g1
((lp1943
I504
aI1135
aI467
aI542
aI1079
atp1944
Rp1945
sI648
g1
((lp1946
I161
aI218
aI51
aI695
aI119
atp1947
Rp1948
sI649
g1
((lp1949
I280
aI440
aI724
aI612
aI509
atp1950
Rp1951
sI650
g1
((lp1952
I835
aI413
aI174
aI783
atp1953
Rp1954
sI651
g1
((lp1955
I344
aI466
aI1195
aI110
atp1956
Rp1957
sI652
g1
((lp1958
I1016
aI601
aI77
aI414
aI1081
atp1959
Rp1960
sI653
g1
((lp1961
I874
aI494
atp1962
Rp1963
sI654
g1
((lp1964
I392
aI220
aI1079
atp1965
Rp1966
sI655
g1
((lp1967
I80
aI882
aI1062
aI79
atp1968
Rp1969
sI656
g1
((lp1970
I480
aI1041
aI1215
aI63
aI348
aI333
aI415
atp1971
Rp1972
sI657
g1
((lp1973
I921
aI1089
aI147
aI775
aI1001
aI1207
aI415
atp1974
Rp1975
sI658
g1
((lp1976
I24
aI1129
aI1074
atp1977
Rp1978
sI659
g1
((lp1979
I760
aI133
aI1022
aI111
atp1980
Rp1981
sI660
g1
((lp1982
I16
aI370
aI126
atp1983
Rp1984
sI661
g1
((lp1985
I209
aI162
aI900
aI257
aI25
aI234
aI891
atp1986
Rp1987
sI662
g1
((lp1988
I900
aI837
aI871
aI632
aI777
aI668
atp1989
Rp1990
sI663
g1
((lp1991
I1168
aI370
aI1203
aI631
aI746
aI471
aI767
atp1992
Rp1993
sI664
g1
((lp1994
I91
aI547
aI461
atp1995
Rp1996
sI665
g1
((lp1997
I376
aI714
aI180
aI1071
atp1998
Rp1999
sI666
g1
((lp2000
I168
aI553
aI1182
aI302
atp2001
Rp2002
sI667
g1
((lp2003
I998
aI904
aI874
aI31
aI924
aI607
atp2004
Rp2005
sI668
g1
((lp2006
I577
aI1179
aI21
aI662
atp2007
Rp2008
sI669
g1
((lp2009
I560
aI896
aI693
aI615
atp2010
Rp2011
sI670
g1
((lp2012
I1197
aI610
aI437
aI506
aI141
aI271
atp2013
Rp2014
sI671
g1
((lp2015
I848
aI324
aI521
aI344
aI585
aI954
aI285
aI1044
atp2016
Rp2017
sI672
g1
((lp2018
I818
aI1013
aI1159
aI91
aI412
aI189
atp2019
Rp2020
sI673
g1
((lp2021
I321
aI1000
aI870
aI825
aI888
aI153
aI298
aI1162
aI510
atp2022
Rp2023
sI674
g1
((lp2024
I896
aI992
aI804
aI839
aI952
aI779
aI1196
atp2025
Rp2026
sI675
g1
((lp2027
I824
aI805
aI1230
aI1069
atp2028
Rp2029
sI676
g1
((lp2030
I768
aI968
aI1065
aI1042
aI941
aI1010
aI886
aI183
aI953
aI751
aI1209
atp2031
Rp2032
sI677
g1
((lp2033
I979
aI340
aI293
aI248
aI756
aI122
aI1147
atp2034
Rp2035
sI678
g1
((lp2036
I593
aI1172
aI846
aI961
aI760
aI1037
aI350
atp2037
Rp2038
sI679
g1
((lp2039
I580
aI174
atp2040
Rp2041
sI680
g1
((lp2042
I101
aI1049
aI761
aI490
aI556
aI797
atp2043
Rp2044
sI681
g1
((lp2045
I371
aI372
aI79
atp2046
Rp2047
sI682
g1
((lp2048
I1089
aI979
aI644
aI526
aI787
aI1215
aI765
aI62
aI1141
atp2049
Rp2050
sI683
g1
((lp2051
I272
aI593
aI443
aI213
aI733
atp2052
Rp2053
sI684
g1
((lp2054
I32
aI368
aI530
aI326
aI9
aI635
aI736
aI1024
atp2055
Rp2056
sI685
g1
((lp2057
I83
aI916
aI774
aI199
aI91
aI732
aI78
atp2058
Rp2059
sI686
g1
((lp2060
I592
aI776
aI619
aI519
aI1161
aI585
aI10
aI603
aI445
aI254
atp2061
Rp2062
sI687
g1
((lp2063
I480
aI945
aI83
aI711
aI8
aI1116
aI769
aI110
aI607
atp2064
Rp2065
sI688
g1
((lp2066
I1009
aI347
aI846
aI1175
atp2067
Rp2068
sI689
g1
((lp2069
I192
aI296
aI469
atp2070
Rp2071
sI690
g1
((lp2072
I840
aI1123
aI808
aI1209
aI218
aI927
aI719
atp2073
Rp2074
sI691
g1
((lp2075
I864
aI837
aI1207
atp2076
Rp2077
sI692
g1
((lp2078
I57
aI506
aI379
aI1229
atp2079
Rp2080
sI693
g1
((lp2081
I48
aI546
aI729
aI73
aI255
aI669
aI125
atp2082
Rp2083
sI694
g1
((lp2084
I812
aI923
aI84
aI972
aI334
atp2085
Rp2086
sI695
g1
((lp2087
I363
aI1118
aI648
aI859
aI703
aI542
aI143
atp2088
Rp2089
sI696
g1
((lp2090
I592
aI177
aI627
aI211
aI39
aI1233
aI807
aI941
atp2091
Rp2092
sI697
g1
((lp2093
I225
aI99
atp2094
Rp2095
sI698
g1
((lp2096
I722
aI596
aI838
aI455
aI852
aI223
atp2097
Rp2098
sI699
g1
((lp2099
I264
aI840
aI994
aI795
aI868
atp2100
Rp2101
sI700
g1
((lp2102
I344
aI109
atp2103
Rp2104
sI701
g1
((lp2105
I176
aI312
aI523
aI639
atp2106
Rp2107
sI702
g1
((lp2108
I1224
aI1038
aI206
atp2109
Rp2110
sI703
g1
((lp2111
I352
aI480
aI436
aI741
aI118
aI695
aI1188
atp2112
Rp2113
sI704
g1
((lp2114
I1063
aI866
aI843
aI301
aI1021
atp2115
Rp2116
sI705
g1
((lp2117
I217
aI619
atp2118
Rp2119
sI706
g1
((lp2120
I512
aI986
aI1103
aI334
aI287
atp2121
Rp2122
sI707
g1
((lp2123
I455
atp2124
Rp2125
sI708
g1
((lp2126
I568
aI5
aI440
aI927
aI540
aI165
atp2127
Rp2128
sI709
g1
((lp2129
I737
aI1214
aI505
aI154
aI365
aI558
atp2130
Rp2131
sI710
g1
((lp2132
I1074
aI836
aI486
aI442
aI221
aI765
atp2133
Rp2134
sI711
g1
((lp2135
I19
aI1214
aI441
aI922
aI172
aI1101
aI350
aI687
atp2136
Rp2137
sI712
g1
((lp2138
I186
aI627
aI876
aI1034
atp2139
Rp2140
sI713
g1
((lp2141
I177
aI1026
aI356
aI239
atp2142
Rp2143
sI714
g1
((lp2144
I974
aI665
aI876
aI45
aI198
atp2145
Rp2146
sI715
g1
((lp2147
I145
aI1027
aI116
aI284
aI943
atp2148
Rp2149
sI716
g1
((lp2150
I904
aI642
aI1175
aI568
aI905
aI1161
aI205
atp2151
Rp2152
sI717
g1
((lp2153
I1104
aI753
aI98
aI643
aI327
aI760
aI186
aI1051
aI542
atp2154
Rp2155
sI718
g1
((lp2156
I128
aI593
aI627
aI822
aI97
aI808
aI1152
aI332
aI367
atp2157
Rp2158
sI719
g1
((lp2159
I504
aI690
aI20
aI126
aI543
atp2160
Rp2161
sI720
g1
((lp2162
I58
aI310
atp2163
Rp2164
sI721
g1
((lp2165
I1216
aI962
aI229
aI552
aI1097
aI1228
aI450
aI815
aI1083
aI924
aI957
atp2166
Rp2167
sI722
g1
((lp2168
I1025
aI947
aI436
aI119
aI408
aI1129
aI698
aI542
aI639
atp2169
Rp2170
sI723
g1
((lp2171
I728
aI1141
aI551
aI1000
aI860
aI332
aI605
atp2172
Rp2173
sI724
g1
((lp2174
I649
aI52
aI469
atp2175
Rp2176
sI725
g1
((lp2177
I456
aI744
aI627
aI1100
atp2178
Rp2179
sI726
g1
((lp2180
I161
aI866
aI531
aI1192
aI1068
aI635
aI28
aI1071
atp2181
Rp2182
sI727
g1
((lp2183
I859
aI644
aI299
aI780
aI606
aI527
atp2184
Rp2185
sI728
g1
((lp2186
I48
aI480
aI723
aI625
aI486
aI593
aI1048
aI205
aI430
atp2187
Rp2188
sI729
g1
((lp2189
I323
aI693
aI1174
aI183
aI733
aI735
atp2190
Rp2191
sI730
g1
((lp2192
I769
aI740
atp2193
Rp2194
sI731
g1
((lp2195
I2
aI460
aI503
atp2196
Rp2197
sI732
g1
((lp2198
I340
aI1145
aI489
aI1115
aI156
aI685
atp2199
Rp2200
sI733
g1
((lp2201
I187
aI261
aI729
aI683
aI1149
aI963
atp2202
Rp2203
sI734
g1
((lp2204
I80
aI546
aI389
aI1014
aI57
aI413
aI757
atp2205
Rp2206
sI735
g1
((lp2207
I729
aI500
aI253
aI1177
atp2208
Rp2209
sI736
g1
((lp2210
I768
aI684
aI628
aI309
atp2211
Rp2212
sI737
g1
((lp2213
I440
aI66
aI610
aI709
atp2214
Rp2215
sI738
g1
((lp2216
I580
aI436
aI469
aI1166
aI617
atp2217
Rp2218
sI739
g1
((lp2219
tp2220
Rp2221
sI740
g1
((lp2222
I602
aI1219
aI84
aI730
atp2223
Rp2224
sI741
g1
((lp2225
I569
aI533
aI933
aI703
atp2226
Rp2227
sI742
g1
((lp2228
I1081
aI1203
aI356
aI1198
atp2229
Rp2230
sI743
g1
((lp2231
I91
aI979
aI991
aI774
aI235
atp2232
Rp2233
sI744
g1
((lp2234
I801
aI1066
aI1156
aI52
aI725
atp2235
Rp2236
sI745
g1
((lp2237
I1117
atp2238
Rp2239
sI746
g1
((lp2240
I192
aI1234
aI773
aI663
aI492
aI834
aI959
atp2241
Rp2242
sI747
g1
((lp2243
I633
aI18
aI533
aI245
atp2244
Rp2245
sI748
g1
((lp2246
I641
aI1059
aI582
aI198
atp2247
Rp2248
sI749
g1
((lp2249
I1135
atp2250
Rp2251
sI750
g1
((lp2252
I225
aI570
aI454
aI337
atp2253
Rp2254
sI751
g1
((lp2255
I831
aI676
aI1013
aI103
atp2256
Rp2257
sI752
g1
((lp2258
I587
aI118
atp2259
Rp2260
sI753
g1
((lp2261
I66
aI547
aI84
aI375
aI1064
aI777
aI234
aI717
aI589
atp2262
Rp2263
sI754
g1
((lp2264
I437
atp2265
Rp2266
sI755
g1
((lp2267
I1216
aI549
aI102
aI1110
aI125
aI334
aI511
atp2268
Rp2269
sI756
g1
((lp2270
I1140
aI900
aI677
aI1023
atp2271
Rp2272
sI757
g1
((lp2273
I138
aI117
aI734
aI621
atp2274
Rp2275
sI758
g1
((lp2276
I256
aI544
aI50
aI1234
aI919
atp2277
Rp2278
sI759
g1
((lp2279
I1048
aI782
atp2280
Rp2281
sI760
g1
((lp2282
I288
aI417
aI659
aI244
aI678
aI171
aI717
atp2283
Rp2284
sI761
g1
((lp2285
I680
aI159
aI372
aI445
aI55
atp2286
Rp2287
sI762
g1
((lp2288
I48
aI572
aI941
aI374
aI135
atp2289
Rp2290
sI763
g1
((lp2291
I378
atp2292
Rp2293
sI764
g1
((lp2294
I208
aI65
aI840
aI505
atp2295
Rp2296
sI765
g1
((lp2297
I416
aI1187
aI452
aI597
aI710
aI74
aI111
aI682
aI319
atp2298
Rp2299
sI766
g1
((lp2300
I856
aI1001
aI506
aI299
aI444
aI61
atp2301
Rp2302
sI767
g1
((lp2303
I1064
aI1125
aI437
aI990
aI663
atp2304
Rp2305
sI768
g1
((lp2306
I736
aI626
aI676
aI502
aI296
aI772
aI636
aI546
atp2307
Rp2308
sI769
g1
((lp2309
I71
aI1071
aI730
aI423
aI844
aI26
aI687
atp2310
Rp2311
sI770
g1
((lp2312
I395
atp2313
Rp2314
sI771
g1
((lp2315
I889
aI586
aI871
aI335
atp2316
Rp2317
sI772
g1
((lp2318
I768
atp2319
Rp2320
sI773
g1
((lp2321
I400
aI389
aI1177
aI796
aI746
aI348
aI634
atp2322
Rp2323
sI774
g1
((lp2324
I211
aI1130
aI743
aI986
aI157
aI46
aI685
atp2325
Rp2326
sI775
g1
((lp2327
I456
aI657
aI1210
aI304
atp2328
Rp2329
sI776
g1
((lp2330
I1028
aI425
aI248
aI249
aI970
aI525
aI686
atp2331
Rp2332
sI777
g1
((lp2333
I753
aI606
aI662
aI833
aI1144
aI862
aI1061
atp2334
Rp2335
sI778
g1
((lp2336
I1130
aI451
aI476
aI470
aI799
atp2337
Rp2338
sI779
g1
((lp2339
I674
aI283
aI612
aI54
aI583
atp2340
Rp2341
sI780
g1
((lp2342
I256
aI835
aI309
aI727
aI426
aI941
aI565
atp2343
Rp2344
sI781
g1
((lp2345
tp2346
Rp2347
sI782
g1
((lp2348
I579
aI83
aI1215
aI759
atp2349
Rp2350
sI783
g1
((lp2351
I416
aI1073
aI101
aI486
aI135
aI202
aI423
aI589
aI1134
aI650
atp2352
Rp2353
sI784
g1
((lp2354
I979
aI1132
aI278
atp2355
Rp2356
sI785
g1
((lp2357
I840
aI1141
aI21
aI87
atp2358
Rp2359
sI786
g1
((lp2360
I1204
aI469
aI855
aI152
aI297
aI1228
atp2361
Rp2362
sI787
g1
((lp2363
I515
aI596
aI892
aI682
aI619
aI172
aI206
atp2364
Rp2365
sI788
g1
((lp2366
I246
aI438
aI71
aI902
aI813
aI1038
aI845
atp2367
Rp2368
sI789
g1
((lp2369
I552
aI277
aI407
atp2370
Rp2371
sI790
g1
((lp2372
I880
aI611
aI628
aI501
aI1078
aI36
aI523
aI908
atp2373
Rp2374
sI791
g1
((lp2375
I1121
aI626
aI205
aI119
atp2376
Rp2377
sI792
g1
((lp2378
I1050
atp2379
Rp2380
sI793
g1
((lp2381
I427
aI599
atp2382
Rp2383
sI794
g1
((lp2384
I1049
aI291
atp2385
Rp2386
sI795
g1
((lp2387
I1070
aI699
aI374
aI46
atp2388
Rp2389
sI796
g1
((lp2390
I960
aI773
aI886
aI295
atp2391
Rp2392
sI797
g1
((lp2393
I418
aI19
aI163
aI680
aI329
aI1210
aI1147
aI1183
aI319
atp2394
Rp2395
sI798
g1
((lp2396
I76
aI121
aI1204
aI148
aI1009
atp2397
Rp2398
sI799
g1
((lp2399
I433
aI258
aI817
aI313
aI778
aI1036
aI850
atp2400
Rp2401
sI800
g1
((lp2402
I1168
aI1232
aI612
aI853
aI886
aI295
atp2403
Rp2404
sI801
g1
((lp2405
I744
aI81
aI164
atp2406
Rp2407
sI802
g1
((lp2408
I1072
aI577
aI1221
aI150
aI1169
aI827
aI239
atp2409
Rp2410
sI803
g1
((lp2411
I1201
aI467
aI1236
aI585
aI315
aI156
atp2412
Rp2413
sI804
g1
((lp2414
I674
aI292
aI537
aI103
aI505
aI955
aI220
atp2415
Rp2416
sI805
g1
((lp2417
I379
aI1121
aI354
aI675
atp2418
Rp2419
sI806
g1
((lp2420
I209
aI278
aI71
aI184
aI891
aI623
atp2421
Rp2422
sI807
g1
((lp2423
I952
aI259
aI1227
aI696
aI426
aI251
atp2424
Rp2425
sI808
g1
((lp2426
I384
aI56
aI690
aI44
aI718
atp2427
Rp2428
sI809
g1
((lp2429
I436
aI165
aI390
aI311
aI1046
aI999
aI349
atp2430
Rp2431
sI810
g1
((lp2432
I112
aI896
aI1010
aI1171
aI486
atp2433
Rp2434
sI811
g1
((lp2435
I1092
aI135
atp2436
Rp2437
sI812
g1
((lp2438
I1200
aI138
aI50
aI694
aI1119
atp2439
Rp2440
sI813
g1
((lp2441
I788
aI322
aI260
aI1012
atp2442
Rp2443
sI814
g1
((lp2444
I548
aI268
aI941
aI981
atp2445
Rp2446
sI815
g1
((lp2447
I721
aI1115
aI297
aI250
aI203
aI141
atp2448
Rp2449
sI816
g1
((lp2450
I1051
aI1041
aI1035
aI36
aI1190
aI518
aI456
aI362
aI331
aI175
atp2451
Rp2452
sI817
g1
((lp2453
I1144
aI3
aI822
aI799
atp2454
Rp2455
sI818
g1
((lp2456
I392
aI672
aI0
atp2457
Rp2458
sI819
g1
((lp2459
I261
aI40
aI9
aI394
aI1035
aI1101
atp2460
Rp2461
sI820
g1
((lp2462
I1141
aI310
aI343
aI633
aI1145
aI445
atp2463
Rp2464
sI821
g1
((lp2465
I1072
atp2466
Rp2467
sI822
g1
((lp2468
I817
aI242
aI1046
aI68
aI78
aI950
aI234
aI492
aI718
atp2469
Rp2470
sI823
g1
((lp2471
I1
aI627
aI612
aI430
atp2472
Rp2473
sI824
g1
((lp2474
I675
aI644
aI1086
aI358
aI27
aI558
atp2475
Rp2476
sI825
g1
((lp2477
I226
aI514
aI188
aI165
aI673
atp2478
Rp2479
sI826
g1
((lp2480
I492
aI13
aI317
atp2481
Rp2482
sI827
g1
((lp2483
I1024
aI433
aI802
aI1164
aI359
atp2484
Rp2485
sI828
g1
((lp2486
I84
aI470
aI1015
aI520
aI1132
aI493
aI911
atp2487
Rp2488
sI829
g1
((lp2489
I554
aI233
aI362
aI323
aI426
atp2490
Rp2491
sI830
g1
((lp2492
I1010
aI1140
aI1195
aI1154
aI302
aI383
atp2493
Rp2494
sI831
g1
((lp2495
I608
aI184
aI995
aI751
atp2496
Rp2497
sI832
g1
((lp2498
I1193
aI1067
aI269
aI471
atp2499
Rp2500
sI833
g1
((lp2501
I777
aI1226
aI45
aI311
atp2502
Rp2503
sI834
g1
((lp2504
I746
aI219
aI197
aI837
aI573
atp2505
Rp2506
sI835
g1
((lp2507
I160
aI116
aI631
aI8
aI650
aI427
aI780
aI1226
atp2508
Rp2509
sI836
g1
((lp2510
I184
aI257
aI1090
aI710
aI191
atp2511
Rp2512
sI837
g1
((lp2513
I1123
aI834
aI691
aI662
aI987
atp2514
Rp2515
sI838
g1
((lp2516
I64
aI529
aI979
aI1082
aI328
aI393
aI698
aI973
atp2517
Rp2518
sI839
g1
((lp2519
I344
aI674
aI587
aI346
atp2520
Rp2521
sI840
g1
((lp2522
I785
aI690
aI917
aI1057
aI699
aI764
aI431
atp2523
Rp2524
sI841
g1
((lp2525
I978
aI954
aI397
aI441
aI298
aI1133
aI572
aI157
aI431
atp2526
Rp2527
sI842
g1
((lp2528
I1024
aI944
atp2529
Rp2530
sI843
g1
((lp2531
I704
aI254
aI389
aI1046
aI295
aI238
atp2532
Rp2533
sI844
g1
((lp2534
I769
aI607
aI159
atp2535
Rp2536
sI845
g1
((lp2537
I992
aI931
aI788
aI1125
aI182
aI567
aI891
aI1067
aI31
atp2538
Rp2539
sI846
g1
((lp2540
I688
aI545
aI290
aI678
atp2541
Rp2542
sI847
g1
((lp2543
I280
aI400
aI601
atp2544
Rp2545
sI848
g1
((lp2546
I320
aI433
aI962
aI564
aI166
aI897
aI186
aI158
aI671
atp2547
Rp2548
sI849
g1
((lp2549
I258
aI459
aI164
aI21
aI22
aI635
atp2550
Rp2551
sI850
g1
((lp2552
I898
aI563
aI69
aI278
aI1127
aI1132
aI300
aI1077
aI799
atp2553
Rp2554
sI851
g1
((lp2555
I148
atp2556
Rp2557
sI852
g1
((lp2558
I914
aI931
aI1045
aI634
aI698
aI1135
atp2559
Rp2560
sI853
g1
((lp2561
I800
aI170
aI371
aI316
aI638
atp2562
Rp2563
sI854
g1
((lp2564
I994
aI610
aI93
atp2565
Rp2566
sI855
g1
((lp2567
I466
aI134
aI471
aI1081
aI490
aI59
aI786
aI463
atp2568
Rp2569
sI856
g1
((lp2570
I97
aI1041
aI766
aI585
atp2571
Rp2572
sI857
g1
((lp2573
I376
aI919
aI486
aI591
atp2574
Rp2575
sI858
g1
((lp2576
I496
aI1041
aI356
aI1173
aI87
aI426
aI91
aI957
atp2577
Rp2578
sI859
g1
((lp2579
I65
aI19
aI260
aI727
aI695
aI955
atp2580
Rp2581
sI860
g1
((lp2582
I645
aI43
aI629
aI723
aI175
atp2583
Rp2584
sI861
g1
((lp2585
I296
aI216
aI1193
aI186
aI475
aI221
aI877
atp2586
Rp2587
sI862
g1
((lp2588
I777
aI444
aI412
aI333
aI389
atp2589
Rp2590
sI863
g1
((lp2591
I1073
aI991
aI270
aI254
aI391
atp2592
Rp2593
sI864
g1
((lp2594
I1170
aI691
aI101
aI534
aI975
atp2595
Rp2596
sI865
g1
((lp2597
I308
aI22
atp2598
Rp2599
sI866
g1
((lp2600
I704
aI726
atp2601
Rp2602
sI867
g1
((lp2603
I272
aI881
aI391
atp2604
Rp2605
sI868
g1
((lp2606
I512
aI305
aI210
aI699
aI351
atp2607
Rp2608
sI869
g1
((lp2609
I196
atp2610
Rp2611
sI870
g1
((lp2612
I673
aI930
aI1092
aI565
aI151
aI538
aI77
atp2613
Rp2614
sI871
g1
((lp2615
I771
aI518
aI662
aI970
aI555
aI95
atp2616
Rp2617
sI872
g1
((lp2618
I537
aI227
aI1089
atp2619
Rp2620
sI873
g1
((lp2621
I1142
atp2622
Rp2623
sI874
g1
((lp2624
I144
aI17
aI985
aI667
aI988
aI653
atp2625
Rp2626
sI875
g1
((lp2627
I459
aI1149
aI351
atp2628
Rp2629
sI876
g1
((lp2630
I1200
aI977
aI597
aI712
aI265
aI714
aI172
aI318
atp2631
Rp2632
sI877
g1
((lp2633
I1129
aI74
aI861
aI30
aI959
atp2634
Rp2635
sI878
g1
((lp2636
I557
aI1101
atp2637
Rp2638
sI879
g1
((lp2639
I592
aI1184
aI468
aI53
aI374
aI615
aI244
aI1081
aI1037
atp2640
Rp2641
sI880
g1
((lp2642
I214
aI1057
aI196
aI790
aI886
aI602
atp2643
Rp2644
sI881
g1
((lp2645
I576
aI226
aI867
aI472
aI527
aI159
atp2646
Rp2647
sI882
g1
((lp2648
I631
aI148
aI486
aI655
atp2649
Rp2650
sI883
g1
((lp2651
I423
aI923
aI1003
aI343
atp2652
Rp2653
sI884
g1
((lp2654
I328
aI1209
aI1174
aI470
atp2655
Rp2656
sI885
g1
((lp2657
I984
aI1136
aI1224
aI157
aI54
atp2658
Rp2659
sI886
g1
((lp2660
I800
aI880
aI514
aI419
aI676
aI199
aI1143
aI796
aI285
aI1021
atp2661
Rp2662
sI887
g1
((lp2663
I128
aI1188
aI1134
aI1065
aI1098
aI1051
aI30
atp2664
Rp2665
sI888
g1
((lp2666
I673
aI1163
aI1084
aI990
atp2667
Rp2668
sI889
g1
((lp2669
I466
aI771
aI597
aI1082
aI972
aI302
atp2670
Rp2671
sI890
g1
((lp2672
I609
aI21
aI494
atp2673
Rp2674
sI891
g1
((lp2675
I624
aI897
aI51
aI661
aI806
aI119
aI921
aI1129
aI845
aI255
atp2676
Rp2677
sI892
g1
((lp2678
I609
aI787
aI598
aI1073
aI1149
aI1011
atp2679
Rp2680
sI893
g1
((lp2681
I148
atp2682
Rp2683
sI894
g1
((lp2684
I1212
aI906
aI516
aI103
atp2685
Rp2686
sI895
g1
((lp2687
I75
aI244
aI1011
aI15
atp2688
Rp2689
sI896
g1
((lp2690
I176
aI208
aI674
aI328
aI810
aI156
aI669
atp2691
Rp2692
sI897
g1
((lp2693
I848
aI891
aI587
aI1214
aI1049
atp2694
Rp2695
sI898
g1
((lp2696
I850
aI19
aI643
aI70
aI45
aI499
atp2697
Rp2698
sI899
g1
((lp2699
I224
aI1136
aI20
aI983
aI61
aI349
atp2700
Rp2701
sI900
g1
((lp2702
I756
aI661
aI662
aI1223
aI362
aI315
atp2703
Rp2704
sI901
g1
((lp2705
I1161
aI242
aI277
atp2706
Rp2707
sI902
g1
((lp2708
I409
aI788
aI566
atp2709
Rp2710
sI903
g1
((lp2711
I242
aI478
atp2712
Rp2713
sI904
g1
((lp2714
I0
aI592
aI667
aI716
aI389
atp2715
Rp2716
sI905
g1
((lp2717
I1235
aI518
aI646
aI999
aI716
aI94
aI255
atp2718
Rp2719
sI906
g1
((lp2720
I288
aI52
aI270
aI1080
aI556
aI894
atp2721
Rp2722
sI907
g1
((lp2723
I1175
atp2724
Rp2725
sI908
g1
((lp2726
I160
aI1140
aI790
atp2727
Rp2728
sI909
g1
((lp2729
I64
aI964
aI1155
aI348
aI1192
atp2730
Rp2731
sI910
g1
((lp2732
I1124
aI588
atp2733
Rp2734
sI911
g1
((lp2735
I160
aI936
aI828
aI1142
aI1063
atp2736
Rp2737
sI912
g1
((lp2738
I57
aI259
aI236
aI173
atp2739
Rp2740
sI913
g1
((lp2741
I1005
aI30
atp2742
Rp2743
sI914
g1
((lp2744
I576
aI1016
aI170
aI852
atp2745
Rp2746
sI915
g1
((lp2747
I420
aI149
aI457
aI1098
aI172
aI1221
atp2748
Rp2749
sI916
g1
((lp2750
I386
aI467
aI596
aI1125
aI685
aI31
atp2751
Rp2752
sI917
g1
((lp2753
I840
aI1066
aI1212
aI949
atp2754
Rp2755
sI918
g1
((lp2756
I320
aI961
aI1049
aI219
aI508
aI1197
aI1213
atp2757
Rp2758
sI919
g1
((lp2759
I857
aI758
aI1201
atp2760
Rp2761
sI920
g1
((lp2762
I628
aI221
aI1110
aI615
atp2763
Rp2764
sI921
g1
((lp2765
I337
aI891
aI110
aI657
atp2766
Rp2767
sI922
g1
((lp2768
I608
aI1025
aI555
aI68
aI711
atp2769
Rp2770
sI923
g1
((lp2771
I321
aI883
aI1189
aI694
aI504
aI394
atp2772
Rp2773
sI924
g1
((lp2774
I721
aI1141
aI1048
aI667
aI1053
aI1182
atp2775
Rp2776
sI925
g1
((lp2777
I1124
aI596
aI942
aI375
aI120
aI1188
aI1227
aI988
aI238
atp2778
Rp2779
sI926
g1
((lp2780
I1093
atp2781
Rp2782
sI927
g1
((lp2783
I690
aI387
aI708
aI102
aI344
aI644
aI1051
atp2784
Rp2785
sI928
g1
((lp2786
I32
aI952
aI483
aI983
aI120
aI617
aI938
aI253
aI1023
atp2787
Rp2788
sI929
g1
((lp2789
I1152
aI1211
aI329
aI1226
aI635
aI190
atp2790
Rp2791
sI930
g1
((lp2792
I1009
aI130
aI979
aI84
aI1029
aI870
aI125
atp2793
Rp2794
sI931
g1
((lp2795
I852
aI28
aI845
atp2796
Rp2797
sI932
g1
((lp2798
I324
aI89
aI540
aI1102
aI641
atp2799
Rp2800
sI933
g1
((lp2801
I355
aI21
aI214
aI1148
aI1070
aI741
atp2802
Rp2803
sI934
g1
((lp2804
I426
aI357
atp2805
Rp2806
sI935
g1
((lp2807
I635
aI155
aI198
aI479
atp2808
Rp2809
sI936
g1
((lp2810
I911
aI255
atp2811
Rp2812
sI937
g1
((lp2813
I392
aI1192
aI450
aI571
aI998
atp2814
Rp2815
sI938
g1
((lp2816
I928
aI583
aI1048
aI1097
aI219
aI238
aI623
atp2817
Rp2818
sI939
g1
((lp2819
I1140
aI1052
atp2820
Rp2821
sI940
g1
((lp2822
I105
aI141
atp2823
Rp2824
sI941
g1
((lp2825
I1057
aI580
aI1031
aI780
aI557
aI78
aI431
aI1144
aI814
aI150
aI696
aI676
aI762
aI574
atp2826
Rp2827
sI942
g1
((lp2828
I925
aI370
aI460
aI61
aI645
atp2829
Rp2830
sI943
g1
((lp2831
I1223
aI715
aI548
aI963
aI559
atp2832
Rp2833
sI944
g1
((lp2834
I57
aI842
aI1002
atp2835
Rp2836
sI945
g1
((lp2837
I400
aI1088
aI1157
aI299
aI1020
aI687
atp2838
Rp2839
sI946
g1
((lp2840
I296
aI968
aI1060
aI125
aI381
atp2841
Rp2842
sI947
g1
((lp2843
I400
aI722
aI294
aI599
aI1033
aI317
aI63
atp2844
Rp2845
sI948
g1
((lp2846
I216
aI211
aI53
aI1048
aI8
aI141
aI575
atp2847
Rp2848
sI949
g1
((lp2849
I24
aI140
aI917
aI478
atp2850
Rp2851
sI950
g1
((lp2852
I385
aI202
aI1138
aI822
atp2853
Rp2854
sI951
g1
((lp2855
I10
aI1098
aI174
atp2856
Rp2857
sI952
g1
((lp2858
I928
aI674
aI1075
aI196
aI807
aI349
atp2859
Rp2860
sI953
g1
((lp2861
I546
aI539
aI676
aI986
aI975
atp2862
Rp2863
sI954
g1
((lp2864
I275
aI134
aI841
aI73
aI139
aI462
aI671
atp2865
Rp2866
sI955
g1
((lp2867
I1040
aI994
aI804
aI859
aI172
aI237
atp2868
Rp2869
sI956
g1
((lp2870
I1220
aI325
aI15
atp2871
Rp2872
sI957
g1
((lp2873
I721
aI122
aI858
aI110
atp2874
Rp2875
sI958
g1
((lp2876
I202
aI310
atp2877
Rp2878
sI959
g1
((lp2879
I746
aI877
atp2880
Rp2881
sI960
g1
((lp2882
I42
aI155
aI796
aI405
aI447
atp2883
Rp2884
sI961
g1
((lp2885
I624
aI311
aI918
aI678
aI117
atp2886
Rp2887
sI962
g1
((lp2888
I848
aI721
aI274
aI363
aI1215
atp2889
Rp2890
sI963
g1
((lp2891
I563
aI733
aI1046
aI943
atp2892
Rp2893
sI964
g1
((lp2894
I972
aI1179
aI412
aI909
aI567
atp2895
Rp2896
sI965
g1
((lp2897
I1051
aI377
aI579
aI134
aI995
atp2898
Rp2899
sI966
g1
((lp2900
I229
aI1165
atp2901
Rp2902
sI967
g1
((lp2903
I175
atp2904
Rp2905
sI968
g1
((lp2906
I946
aI219
aI676
aI45
aI1070
atp2907
Rp2908
sI969
g1
((lp2909
I91
aI483
atp2910
Rp2911
sI970
g1
((lp2912
I776
aI441
aI871
atp2913
Rp2914
sI971
g1
((lp2915
I439
aI231
aI1213
aI1078
aI343
atp2916
Rp2917
sI972
g1
((lp2918
I433
aI964
aI694
aI1096
aI889
aI175
atp2919
Rp2920
sI973
g1
((lp2921
I339
aI1206
aI838
aI184
aI195
aI1183
atp2922
Rp2923
sI974
g1
((lp2924
I144
aI714
aI326
aI502
aI525
atp2925
Rp2926
sI975
g1
((lp2927
I864
aI953
aI92
aI1165
atp2928
Rp2929
sI976
g1
((lp2930
I1184
aI422
atp2931
Rp2932
sI977
g1
((lp2933
I1104
aI610
aI68
aI105
aI1066
aI876
atp2934
Rp2935
sI978
g1
((lp2936
I841
atp2937
Rp2938
sI979
g1
((lp2939
I784
aI930
aI677
aI838
aI743
aI682
atp2940
Rp2941
sI980
g1
((lp2942
I80
aI576
aI514
aI1174
aI268
aI1006
atp2943
Rp2944
sI981
g1
((lp2945
I544
aI459
aI814
aI415
atp2946
Rp2947
sI982
g1
((lp2948
I1025
aI1138
aI51
aI990
aI1151
atp2949
Rp2950
sI983
g1
((lp2951
I928
aI1088
aI899
aI310
aI457
aI349
atp2952
Rp2953
sI984
g1
((lp2954
I35
aI885
aI1086
aI235
atp2955
Rp2956
sI985
g1
((lp2957
I874
aI75
aI492
aI351
atp2958
Rp2959
sI986
g1
((lp2960
I265
aI706
aI212
aI774
aI953
atp2961
Rp2962
sI987
g1
((lp2963
I89
aI114
aI837
aI1205
atp2964
Rp2965
sI988
g1
((lp2966
I1126
aI1143
aI874
aI443
aI925
aI399
atp2967
Rp2968
sI989
g1
((lp2969
I79
aI422
aI1097
aI106
aI171
aI559
atp2970
Rp2971
sI990
g1
((lp2972
I888
aI982
aI61
aI406
aI767
atp2973
Rp2974
sI991
g1
((lp2975
I385
aI1025
aI166
aI743
aI23
aI107
aI863
atp2976
Rp2977
sI992
g1
((lp2978
I1057
aI674
aI197
aI444
aI156
aI845
atp2979
Rp2980
sI993
g1
((lp2981
I128
aI384
aI325
aI487
aI1159
aI380
aI397
aI1070
atp2982
Rp2983
sI994
g1
((lp2984
I224
aI955
aI422
aI327
aI14
aI149
aI854
aI120
aI1178
aI699
aI446
aI511
atp2985
Rp2986
sI995
g1
((lp2987
I553
aI1118
aI965
aI174
aI831
atp2988
Rp2989
sI996
g1
((lp2990
I256
aI114
aI323
aI358
aI332
aI1166
atp2991
Rp2992
sI997
g1
((lp2993
I1221
aI406
atp2994
Rp2995
sI998
g1
((lp2996
I1088
aI937
aI667
aI1081
atp2997
Rp2998
sI999
g1
((lp2999
I809
aI298
aI460
aI370
aI905
atp3000
Rp3001
sI1000
g1
((lp3002
I673
aI458
aI723
aI14
atp3003
Rp3004
sI1001
g1
((lp3005
I657
aI643
aI1067
aI766
aI297
atp3006
Rp3007
sI1002
g1
((lp3008
I944
aI1120
aI39
atp3009
Rp3010
sI1003
g1
((lp3011
I489
aI883
aI260
aI1159
atp3012
Rp3013
sI1004
g1
((lp3014
I321
aI1013
aI327
atp3015
Rp3016
sI1005
g1
((lp3017
I1200
aI585
aI1194
aI51
aI913
atp3018
Rp3019
sI1006
g1
((lp3020
I1152
aI1106
aI980
aI437
aI1018
aI634
atp3021
Rp3022
sI1007
g1
((lp3023
I560
aI1032
aI1183
atp3024
Rp3025
sI1008
g1
((lp3026
I248
aI1145
aI406
atp3027
Rp3028
sI1009
g1
((lp3029
I688
aI930
aI1235
aI1204
aI357
aI214
aI798
atp3030
Rp3031
sI1010
g1
((lp3032
I608
aI529
aI211
aI676
aI437
aI1054
aI39
aI8
aI810
aI830
atp3033
Rp3034
sI1011
g1
((lp3035
I232
aI892
aI637
aI895
atp3036
Rp3037
sI1012
g1
((lp3038
I475
aI813
atp3039
Rp3040
sI1013
g1
((lp3041
I288
aI672
aI276
aI430
aI361
aI1004
aI509
aI190
aI751
atp3042
Rp3043
sI1014
g1
((lp3044
I425
aI19
aI1108
aI734
aI1063
atp3045
Rp3046
sI1015
g1
((lp3047
I242
aI1094
aI236
aI828
aI1085
aI1103
atp3048
Rp3049
sI1016
g1
((lp3050
I914
aI1139
aI294
aI343
aI652
aI29
aI1181
atp3051
Rp3052
sI1017
g1
((lp3053
I132
aI307
aI412
aI21
atp3054
Rp3055
sI1018
g1
((lp3056
I515
aI259
aI1045
aI1006
atp3057
Rp3058
sI1019
g1
((lp3059
I1085
aI591
atp3060
Rp3061
sI1020
g1
((lp3062
I336
aI408
aI514
aI1123
aI945
atp3063
Rp3064
sI1021
g1
((lp3065
I704
aI68
aI886
atp3066
Rp3067
sI1022
g1
((lp3068
I337
aI163
aI659
aI233
atp3069
Rp3070
sI1023
g1
((lp3071
I928
aI137
aI756
atp3072
Rp3073
sI1024
g1
((lp3074
I564
aI263
aI1079
aI842
aI827
aI684
aI175
atp3075
Rp3076
sI1025
g1
((lp3077
I304
aI352
aI722
aI325
aI982
aI232
aI922
aI1231
aI222
aI991
atp3078
Rp3079
sI1026
g1
((lp3080
I2
aI100
aI357
aI713
aI1221
aI1118
aI399
atp3081
Rp3082
sI1027
g1
((lp3083
I402
aI1139
aI1028
aI94
aI425
aI715
aI173
aI382
atp3084
Rp3085
sI1028
g1
((lp3086
I776
aI418
aI1027
aI383
atp3087
Rp3088
sI1029
g1
((lp3089
I930
aI27
aI261
aI1214
atp3090
Rp3091
sI1030
g1
((lp3092
tp3093
Rp3094
sI1031
g1
((lp3095
I139
aI941
aI1181
atp3096
Rp3097
sI1032
g1
((lp3098
I248
aI1
aI144
aI1007
atp3099
Rp3100
sI1033
g1
((lp3101
I361
aI458
aI947
atp3102
Rp3103
sI1034
g1
((lp3104
I1040
aI520
aI2
aI712
aI412
aI476
aI29
atp3105
Rp3106
sI1035
g1
((lp3107
I816
aI1121
aI819
aI1113
aI42
aI188
atp3108
Rp3109
sI1036
g1
((lp3110
I617
aI598
aI799
atp3111
Rp3112
sI1037
g1
((lp3113
I1107
aI879
aI678
aI351
atp3114
Rp3115
sI1038
g1
((lp3116
I363
aI788
aI702
atp3117
Rp3118
sI1039
g1
((lp3119
I268
atp3120
Rp3121
sI1040
g1
((lp3122
I474
aI1144
aI235
aI1096
aI1034
aI955
aI1069
atp3123
Rp3124
sI1041
g1
((lp3125
I656
aI161
aI4
aI1125
aI856
aI858
aI1066
aI816
atp3126
Rp3127
sI1042
g1
((lp3128
I232
aI281
aI676
aI454
aI528
atp3129
Rp3130
sI1043
g1
((lp3131
I612
atp3132
Rp3133
sI1044
g1
((lp3134
I671
atp3135
Rp3136
sI1045
g1
((lp3137
I516
aI21
aI488
aI100
aI1018
aI852
atp3138
Rp3139
sI1046
g1
((lp3140
I1202
aI963
aI822
aI809
aI204
aI346
aI843
aI396
atp3141
Rp3142
sI1047
g1
((lp3143
I292
aI221
atp3144
Rp3145
sI1048
g1
((lp3146
I948
aI759
aI728
aI76
aI938
aI924
atp3147
Rp3148
sI1049
g1
((lp3149
I897
aI1074
aI1210
aI918
aI81
aI680
aI794
aI429
atp3150
Rp3151
sI1050
g1
((lp3152
I400
aI105
aI128
aI78
aI792
atp3153
Rp3154
sI1051
g1
((lp3155
I816
aI1173
aI372
aI965
aI887
aI219
aI717
aI927
atp3156
Rp3157
sI1052
g1
((lp3158
I939
aI1165
atp3159
Rp3160
sI1053
g1
((lp3161
I211
aI261
aI155
aI924
aI1109
aI469
atp3162
Rp3163
sI1054
g1
((lp3164
I408
aI1010
aI635
atp3165
Rp3166
sI1055
g1
((lp3167
I385
aI591
aI604
aI1069
aI463
atp3168
Rp3169
sI1056
g1
((lp3170
tp3171
Rp3172
sI1057
g1
((lp3173
I992
aI880
aI840
aI941
aI250
aI173
aI47
atp3174
Rp3175
sI1058
g1
((lp3176
I600
aI562
aI1062
aI527
atp3177
Rp3178
sI1059
g1
((lp3179
I640
aI592
aI1091
aI609
aI584
aI748
atp3180
Rp3181
sI1060
g1
((lp3182
I129
aI946
aI420
aI4
aI236
aI477
aI607
atp3183
Rp3184
sI1061
g1
((lp3185
I400
aI777
aI435
aI1068
atp3186
Rp3187
sI1062
g1
((lp3188
I1058
aI655
atp3189
Rp3190
sI1063
g1
((lp3191
I704
aI1152
aI516
aI1014
aI551
aI431
aI911
atp3192
Rp3193
sI1064
g1
((lp3194
I753
aI348
aI767
atp3195
Rp3196
sI1065
g1
((lp3197
I1203
aI676
aI887
aI308
aI250
aI349
aI1215
atp3198
Rp3199
sI1066
g1
((lp3200
I1041
aI917
aI977
aI744
aI202
aI410
atp3201
Rp3202
sI1067
g1
((lp3203
I832
aI387
aI1001
aI234
aI845
aI394
atp3204
Rp3205
sI1068
g1
((lp3206
I726
aI570
aI550
aI566
aI1061
atp3207
Rp3208
sI1069
g1
((lp3209
I1040
aI67
aI675
aI154
aI1070
aI1055
atp3210
Rp3211
sI1070
g1
((lp3212
I993
aI213
aI86
aI968
aI795
aI268
aI1069
aI933
atp3213
Rp3214
sI1071
g1
((lp3215
I1222
aI337
aI467
aI293
aI726
aI377
aI665
aI314
aI769
atp3216
Rp3217
sI1072
g1
((lp3218
I208
aI66
aI802
aI821
aI442
atp3219
Rp3220
sI1073
g1
((lp3221
I264
aI1134
aI632
aI460
aI863
aI892
aI189
aI94
aI783
atp3222
Rp3223
sI1074
g1
((lp3224
I8
aI1049
aI658
aI710
aI1217
atp3225
Rp3226
sI1075
g1
((lp3227
I952
aI305
aI204
aI36
aI477
atp3228
Rp3229
sI1076
g1
((lp3230
I530
aI244
aI263
atp3231
Rp3232
sI1077
g1
((lp3233
I497
aI850
aI504
aI102
aI72
aI396
aI623
atp3234
Rp3235
sI1078
g1
((lp3236
I528
aI790
aI31
aI971
aI1181
aI479
atp3237
Rp3238
sI1079
g1
((lp3239
I1024
aI266
aI347
aI654
aI647
atp3240
Rp3241
sI1080
g1
((lp3242
I26
aI396
aI565
aI358
aI906
atp3243
Rp3244
sI1081
g1
((lp3245
I1100
aI547
aI1220
aI998
aI742
aI119
aI551
aI855
aI652
aI879
atp3246
Rp3247
sI1082
g1
((lp3248
I401
aI341
aI838
aI889
aI1096
aI617
aI58
aI111
aI1098
aI143
atp3249
Rp3250
sI1083
g1
((lp3251
I641
aI579
aI1190
aI1134
aI721
atp3252
Rp3253
sI1084
g1
((lp3254
I888
aI219
aI133
aI1126
aI183
atp3255
Rp3256
sI1085
g1
((lp3257
I352
aI226
aI37
aI1015
aI330
aI1019
aI1196
atp3258
Rp3259
sI1086
g1
((lp3260
I984
aI824
aI1184
aI1110
atp3261
Rp3262
sI1087
g1
((lp3263
I457
aI1207
aI497
atp3264
Rp3265
sI1088
g1
((lp3266
I1104
aI945
aI68
aI998
aI470
aI983
aI72
aI601
aI346
aI583
atp3267
Rp3268
sI1089
g1
((lp3269
I872
aI657
aI682
aI483
aI1111
atp3270
Rp3271
sI1090
g1
((lp3272
I353
aI836
aI631
atp3273
Rp3274
sI1091
g1
((lp3275
I1059
aI571
aI257
atp3276
Rp3277
sI1092
g1
((lp3278
I811
aI870
aI238
atp3279
Rp3280
sI1093
g1
((lp3281
I1104
aI68
aI333
aI926
atp3282
Rp3283
sI1094
g1
((lp3284
I148
aI1015
aI152
aI1188
aI586
aI316
aI30
atp3285
Rp3286
sI1095
g1
((lp3287
I1153
aI1141
atp3288
Rp3289
sI1096
g1
((lp3290
I272
aI1040
aI354
aI1113
aI153
aI1082
aI972
atp3291
Rp3292
sI1097
g1
((lp3293
I584
aI721
aI938
aI356
aI989
atp3294
Rp3295
sI1098
g1
((lp3296
I951
aI1082
aI915
aI605
aI887
atp3297
Rp3298
sI1099
g1
((lp3299
I595
aI163
aI447
aI271
atp3300
Rp3301
sI1100
g1
((lp3302
I1081
aI725
aI1102
atp3303
Rp3304
sI1101
g1
((lp3305
I425
aI819
aI878
aI711
atp3306
Rp3307
sI1102
g1
((lp3308
I1100
aI418
aI932
aI1113
atp3309
Rp3310
sI1103
g1
((lp3311
I706
aI179
aI1015
aI1161
aI202
aI575
atp3312
Rp3313
sI1104
g1
((lp3314
I1088
aI385
aI1238
aI4
aI1093
aI717
aI1134
aI977
aI366
aI398
aI442
atp3315
Rp3316
sI1105
g1
((lp3317
I272
aI1171
aI46
aI566
aI1135
atp3318
Rp3319
sI1106
g1
((lp3320
I192
aI1121
aI1112
aI1172
aI1006
atp3321
Rp3322
sI1107
g1
((lp3323
I1184
aI33
aI1037
aI383
atp3324
Rp3325
sI1108
g1
((lp3326
I41
aI1196
aI229
aI1014
aI1119
atp3327
Rp3328
sI1109
g1
((lp3329
I1138
aI1053
atp3330
Rp3331
sI1110
g1
((lp3332
I920
aI755
aI372
aI1086
aI376
aI378
aI203
aI158
atp3333
Rp3334
sI1111
g1
((lp3335
I1089
aI371
aI452
aI573
aI1137
atp3336
Rp3337
sI1112
g1
((lp3338
I1106
aI315
aI341
aI526
aI197
atp3339
Rp3340
sI1113
g1
((lp3341
I1096
aI1035
aI67
aI1102
aI526
atp3342
Rp3343
sI1114
g1
((lp3344
tp3345
Rp3346
sI1115
g1
((lp3347
I587
aI280
aI732
aI603
aI300
aI815
atp3348
Rp3349
sI1116
g1
((lp3350
I10
aI595
aI687
aI135
atp3351
Rp3352
sI1117
g1
((lp3353
I745
aI1163
aI1124
aI173
aI1231
atp3354
Rp3355
sI1118
g1
((lp3356
I1026
aI695
aI995
aI455
atp3357
Rp3358
sI1119
g1
((lp3359
I24
aI409
aI1108
aI812
aI357
atp3360
Rp3361
sI1120
g1
((lp3362
I1200
aI242
aI323
aI606
aI1002
aI467
atp3363
Rp3364
sI1121
g1
((lp3365
I65
aI1106
aI805
aI791
aI168
aI1035
aI415
atp3366
Rp3367
sI1122
g1
((lp3368
I121
aI380
atp3369
Rp3370
sI1123
g1
((lp3371
I690
aI1020
aI837
aI1182
atp3372
Rp3373
sI1124
g1
((lp3374
I80
aI481
aI310
aI641
aI1177
aI925
aI910
aI1117
atp3375
Rp3376
sI1125
g1
((lp3377
I1041
aI916
aI1222
aI201
aI137
aI91
aI845
aI767
atp3378
Rp3379
sI1126
g1
((lp3380
I192
aI129
aI988
aI478
aI1084
atp3381
Rp3382
sI1127
g1
((lp3383
I448
aI850
aI627
aI213
aI181
atp3384
Rp3385
sI1128
g1
((lp3386
I510
aI119
atp3387
Rp3388
sI1129
g1
((lp3389
I161
aI658
aI291
aI534
aI877
aI527
aI891
aI520
aI722
aI591
atp3390
Rp3391
sI1130
g1
((lp3392
I778
aI21
aI774
aI1191
atp3393
Rp3394
sI1131
g1
((lp3395
I1165
aI521
aI266
aI602
aI111
atp3396
Rp3397
sI1132
g1
((lp3398
I784
aI369
aI850
aI1172
aI309
aI584
aI587
aI828
aI62
atp3399
Rp3400
sI1133
g1
((lp3401
I192
aI841
aI243
atp3402
Rp3403
sI1134
g1
((lp3404
I887
aI1073
aI1104
aI1083
aI783
atp3405
Rp3406
sI1135
g1
((lp3407
I592
aI1105
aI852
aI647
aI361
aI269
aI749
atp3408
Rp3409
sI1136
g1
((lp3410
I899
aI885
aI213
aI239
atp3411
Rp3412
sI1137
g1
((lp3413
I1111
atp3414
Rp3415
sI1138
g1
((lp3416
I600
aI617
aI1109
aI950
aI982
atp3417
Rp3418
sI1139
g1
((lp3419
I1027
aI584
aI35
aI1190
aI1016
aI42
aI1146
atp3420
Rp3421
sI1140
g1
((lp3422
I908
aI939
aI756
aI157
aI830
atp3423
Rp3424
sI1141
g1
((lp3425
I320
aI259
aI1095
aI682
aI428
aI557
aI785
aI723
aI820
aI924
aI350
atp3426
Rp3427
sI1142
g1
((lp3428
I1184
aI873
aI58
aI911
aI364
aI221
aI398
aI383
atp3429
Rp3430
sI1143
g1
((lp3431
I1199
aI988
aI149
aI886
aI413
atp3432
Rp3433
sI1144
g1
((lp3434
I1040
aI777
aI419
aI941
aI817
atp3435
Rp3436
sI1145
g1
((lp3437
I1008
aI732
aI483
aI820
aI134
atp3438
Rp3439
sI1146
g1
((lp3440
I201
aI146
aI1139
aI54
atp3441
Rp3442
sI1147
g1
((lp3443
I48
aI67
aI629
aI230
aI797
aI677
atp3444
Rp3445
sI1148
g1
((lp3446
I1238
aI182
aI198
aI249
aI603
aI933
atp3447
Rp3448
sI1149
g1
((lp3449
I227
aI518
aI875
aI1194
aI395
aI892
aI733
aI303
atp3450
Rp3451
sI1150
g1
((lp3452
I306
aI1219
aI1182
aI494
atp3453
Rp3454
sI1151
g1
((lp3455
I490
aI1226
aI982
atp3456
Rp3457
sI1152
g1
((lp3458
I929
aI1172
aI718
aI321
aI377
aI1063
aI1006
atp3459
Rp3460
sI1153
g1
((lp3461
I209
aI506
aI595
aI1095
aI383
atp3462
Rp3463
sI1154
g1
((lp3464
I531
aI830
aI358
atp3465
Rp3466
sI1155
g1
((lp3467
I520
aI909
atp3468
Rp3469
sI1156
g1
((lp3470
I480
aI744
aI226
aI123
aI366
atp3471
Rp3472
sI1157
g1
((lp3473
I224
aI217
aI945
atp3474
Rp3475
sI1158
g1
((lp3476
I471
aI199
atp3477
Rp3478
sI1159
g1
((lp3479
I672
aI400
aI993
aI424
aI1003
aI382
atp3480
Rp3481
sI1160
g1
((lp3482
I191
atp3483
Rp3484
sI1161
g1
((lp3485
I3
aI523
aI147
aI901
aI342
aI363
aI716
aI686
aI1103
atp3486
Rp3487
sI1162
g1
((lp3488
I673
aI483
aI516
aI312
aI380
aI411
aI396
atp3489
Rp3490
sI1163
g1
((lp3491
I624
aI609
aI1117
aI888
atp3492
Rp3493
sI1164
g1
((lp3494
I433
aI394
aI595
aI133
aI827
atp3495
Rp3496
sI1165
g1
((lp3497
I96
aI354
aI27
aI966
aI364
aI1131
aI1052
aI475
aI975
atp3498
Rp3499
sI1166
g1
((lp3500
I738
aI71
aI996
aI1210
aI319
atp3501
Rp3502
sI1167
g1
((lp3503
I78
atp3504
Rp3505
sI1168
g1
((lp3506
I800
aI222
aI663
atp3507
Rp3508
sI1169
g1
((lp3509
I802
aI1171
aI61
atp3510
Rp3511
sI1170
g1
((lp3512
I864
aI598
aI313
aI395
aI157
aI222
atp3513
Rp3514
sI1171
g1
((lp3515
I1105
aI162
aI515
aI308
aI1219
aI599
aI1169
aI810
atp3516
Rp3517
sI1172
g1
((lp3518
I1152
aI1106
aI230
aI678
aI71
aI1132
aI508
atp3519
Rp3520
sI1173
g1
((lp3521
I105
aI858
aI1051
atp3522
Rp3523
sI1174
g1
((lp3524
I304
aI198
aI884
aI101
aI598
aI729
aI508
aI980
atp3525
Rp3526
sI1175
g1
((lp3527
I688
aI907
aI716
aI1187
aI614
atp3528
Rp3529
sI1176
g1
((lp3530
I332
aI558
aI575
atp3531
Rp3532
sI1177
g1
((lp3533
I352
aI1124
aI773
aI614
aI1225
aI237
aI735
atp3534
Rp3535
sI1178
g1
((lp3536
I994
aI197
aI54
aI125
aI574
aI559
atp3537
Rp3538
sI1179
g1
((lp3539
I33
aI964
aI564
aI313
aI668
aI637
aI77
atp3540
Rp3541
sI1180
g1
((lp3542
I30
atp3543
Rp3544
sI1181
g1
((lp3545
I321
aI292
aI1078
aI1031
aI1016
aI298
aI604
aI461
aI334
atp3546
Rp3547
sI1182
g1
((lp3548
I1123
aI1228
aI924
aI666
aI1196
aI1150
atp3549
Rp3550
sI1183
g1
((lp3551
I616
aI355
aI797
aI550
aI296
aI1007
aI973
aI414
aI445
atp3552
Rp3553
sI1184
g1
((lp3554
I976
aI1107
aI1142
aI1086
aI879
atp3555
Rp3556
sI1185
g1
((lp3557
I490
aI155
aI326
aI54
atp3558
Rp3559
sI1186
g1
((lp3560
I570
atp3561
Rp3562
sI1187
g1
((lp3563
I1175
aI644
aI229
aI70
aI765
atp3564
Rp3565
sI1188
g1
((lp3566
I887
aI1094
aI925
aI286
aI703
atp3567
Rp3568
sI1189
g1
((lp3569
I376
aI640
aI923
atp3570
Rp3571
sI1190
g1
((lp3572
I816
aI1083
aI487
aI1139
aI215
atp3573
Rp3574
sI1191
g1
((lp3575
I72
aI442
aI1130
aI238
aI7
atp3576
Rp3577
sI1192
g1
((lp3578
I937
aI458
aI909
aI726
atp3579
Rp3580
sI1193
g1
((lp3581
I832
aI233
aI861
aI120
atp3582
Rp3583
sI1194
g1
((lp3584
I1149
aI1005
atp3585
Rp3586
sI1195
g1
((lp3587
I528
aI166
aI651
aI221
aI830
aI605
atp3588
Rp3589
sI1196
g1
((lp3590
I674
aI451
aI1108
aI424
aI330
aI1085
aI1182
atp3591
Rp3592
sI1197
g1
((lp3593
I19
aI580
aI918
aI9
aI586
aI670
atp3594
Rp3595
sI1198
g1
((lp3596
I28
aI147
aI196
aI742
atp3597
Rp3598
sI1199
g1
((lp3599
I59
aI220
aI557
aI630
aI1143
atp3600
Rp3601
sI1200
g1
((lp3602
I528
aI1120
aI1202
aI1212
aI534
aI812
aI876
aI1005
atp3603
Rp3604
sI1201
g1
((lp3605
I803
aI519
aI221
aI454
aI919
atp3606
Rp3607
sI1202
g1
((lp3608
I1200
aI369
aI115
aI294
aI1046
atp3609
Rp3610
sI1203
g1
((lp3611
I49
aI1218
aI742
aI663
aI1065
aI219
aI142
atp3612
Rp3613
sI1204
g1
((lp3614
I16
aI401
aI786
aI1009
aI583
aI121
aI798
atp3615
Rp3616
sI1205
g1
((lp3617
I553
aI987
aI1236
aI317
atp3618
Rp3619
sI1206
g1
((lp3620
I450
aI508
aI973
atp3621
Rp3622
sI1207
g1
((lp3623
I657
aI691
aI625
aI1087
atp3624
Rp3625
sI1208
g1
((lp3626
I491
atp3627
Rp3628
sI1209
g1
((lp3629
I617
aI690
aI676
aI341
aI884
atp3630
Rp3631
sI1210
g1
((lp3632
I80
aI403
aI775
aI1049
aI797
aI1166
atp3633
Rp3634
sI1211
g1
((lp3635
I560
aI929
aI50
aI53
aI182
atp3636
Rp3637
sI1212
g1
((lp3638
I264
aI640
aI1200
aI917
aI894
atp3639
Rp3640
sI1213
g1
((lp3641
I368
aI918
aI408
aI971
aI252
aI110
atp3642
Rp3643
sI1214
g1
((lp3644
I897
aI709
aI471
aI136
aI711
aI1029
atp3645
Rp3646
sI1215
g1
((lp3647
I416
aI656
aI962
aI644
aI518
aI1065
aI682
aI235
aI782
atp3648
Rp3649
sI1216
g1
((lp3650
I721
aI755
aI612
atp3651
Rp3652
sI1217
g1
((lp3653
I521
aI98
aI19
aI469
aI1074
atp3654
Rp3655
sI1218
g1
((lp3656
I96
aI584
aI603
aI1203
atp3657
Rp3658
sI1219
g1
((lp3659
I1171
aI740
aI534
aI103
aI92
aI1150
atp3660
Rp3661
sI1220
g1
((lp3662
I641
aI195
aI558
aI1081
aI201
aI27
aI956
aI110
aI638
atp3663
Rp3664
sI1221
g1
((lp3665
I802
aI915
aI1026
aI997
atp3666
Rp3667
sI1222
g1
((lp3668
I90
aI1125
aI278
aI1071
atp3669
Rp3670
sI1223
g1
((lp3671
I900
aI316
aI293
aI943
atp3672
Rp3673
sI1224
g1
((lp3674
I885
aI213
aI702
aI31
atp3675
Rp3676
sI1225
g1
((lp3677
I402
aI123
aI549
aI470
aI248
aI1177
aI523
aI316
aI598
aI467
atp3678
Rp3679
sI1226
g1
((lp3680
I288
aI833
aI531
aI835
aI929
aI522
aI1151
atp3681
Rp3682
sI1227
g1
((lp3683
I162
aI807
aI925
aI111
atp3684
Rp3685
sI1228
g1
((lp3686
I721
aI434
aI1182
aI331
aI786
aI350
atp3687
Rp3688
sI1229
g1
((lp3689
I692
atp3690
Rp3691
sI1230
g1
((lp3692
I497
aI675
aI142
atp3693
Rp3694
sI1231
g1
((lp3695
I1025
aI609
aI645
aI385
aI568
aI509
aI1117
atp3696
Rp3697
sI1232
g1
((lp3698
I104
aI800
aI596
aI398
aI246
atp3699
Rp3700
sI1233
g1
((lp3701
I696
aI32
aI10
aI107
aI629
atp3702
Rp3703
sI1234
g1
((lp3704
I746
aI114
aI758
aI150
atp3705
Rp3706
sI1235
g1
((lp3707
I905
aI1009
aI631
atp3708
Rp3709
sI1236
g1
((lp3710
I803
aI460
aI1205
aI230
aI149
atp3711
Rp3712
sI1237
g1
((lp3713
I422
aI454
aI167
atp3714
Rp3715
sI1238
g1
((lp3716
I1104
aI289
aI1148
aI150
atp3717
Rp3718
s.