(dp0
I0
c__builtin__
set
p1
((lp2
I721
aI370
atp3
Rp4
sI1
g1
((lp5
I473
aI276
aI349
atp6
Rp7
sI2
g1
((lp8
I1114
aI1071
atp9
Rp10
sI3
g1
((lp11
I820
aI290
aI1148
aI926
atp12
Rp13
sI4
g1
((lp14
I1235
aI1059
aI405
aI118
aI299
aI159
atp15
Rp16
sI5
g1
((lp17
I930
atp18
Rp19
sI6
g1
((lp20
I153
aI804
atp21
Rp22
sI7
g1
((lp23
tp24
Rp25
sI8
g1
((lp26
tp27
Rp28
sI9
g1
((lp29
I320
aI106
aI700
aI743
atp30
Rp31
sI10
g1
((lp32
tp33
Rp34
sI11
g1
((lp35
I1081
aI882
aI324
aI77
atp36
Rp37
sI12
g1
((lp38
I547
aI324
aI1231
atp39
Rp40
sI13
g1
((lp41
I722
aI527
aI727
aI1175
atp42
Rp43
sI14
g1
((lp44
I513
aI1042
aI939
aI633
atp45
Rp46
sI15
g1
((lp47
I748
aI669
atp48
Rp49
sI16
g1
((lp50
I762
aI562
aI444
aI717
atp51
Rp52
sI17
g1
((lp53
I41
aI1154
aI843
atp54
Rp55
sI18
g1
((lp56
tp57
Rp58
sI19
g1
((lp59
I313
aI938
aI147
aI58
aI238
atp60
Rp61
sI20
g1
((lp62
I947
atp63
Rp64
sI21
g1
((lp65
I248
aI445
aI45
aI1143
atp66
Rp67
sI22
g1
((lp68
I363
aI271
atp69
Rp70
sI23
g1
((lp71
tp72
Rp73
sI24
g1
((lp74
I888
aI487
atp75
Rp76
sI25
g1
((lp77
I720
aI788
aI266
aI700
aI583
atp78
Rp79
sI26
g1
((lp80
I57
aI1178
aI1053
aI151
atp81
Rp82
sI27
g1
((lp83
I821
aI795
aI317
aI559
atp84
Rp85
sI28
g1
((lp86
I994
aI188
aI278
aI222
atp87
Rp88
sI29
g1
((lp89
I1133
atp90
Rp91
sI30
g1
((lp92
I673
aI251
atp93
Rp94
sI31
g1
((lp95
I234
aI260
aI525
aI1110
atp96
Rp97
sI32
g1
((lp98
I930
aI1234
atp99
Rp100
sI33
g1
((lp101
I271
atp102
Rp103
sI34
g1
((lp104
I840
aI828
aI110
atp105
Rp106
sI35
g1
((lp107
I130
aI843
aI1228
aI125
aI1014
atp108
Rp109
sI36
g1
((lp110
I697
aI653
atp111
Rp112
sI37
g1
((lp113
I1120
atp114
Rp115
sI38
g1
((lp116
I730
aI83
aI276
aI326
aI227
atp117
Rp118
sI39
g1
((lp119
I1083
aI812
aI597
aI1198
aI1214
atp120
Rp121
sI40
g1
((lp122
I209
atp123
Rp124
sI41
g1
((lp125
I17
aI530
atp126
Rp127
sI42
g1
((lp128
I592
aI404
aI54
aI943
atp129
Rp130
sI43
g1
((lp131
I105
aI1045
aI1209
atp132
Rp133
sI44
g1
((lp134
I129
aI556
aI853
atp135
Rp136
sI45
g1
((lp137
I836
aI21
atp138
Rp139
sI46
g1
((lp140
I214
aI639
atp141
Rp142
sI47
g1
((lp143
I866
aI651
atp144
Rp145
sI48
g1
((lp146
I160
aI1123
aI707
aI188
aI747
atp147
Rp148
sI49
g1
((lp149
I452
aI1141
atp150
Rp151
sI50
g1
((lp152
I296
aI1112
aI732
aI1007
atp153
Rp154
sI51
g1
((lp155
I426
aI684
atp156
Rp157
sI52
g1
((lp158
I1064
aI977
aI645
aI1030
atp159
Rp160
sI53
g1
((lp161
tp162
Rp163
sI54
g1
((lp164
I42
aI103
atp165
Rp166
sI55
g1
((lp167
I144
aI99
atp168
Rp169
sI56
g1
((lp170
I840
aI1114
aI732
aI858
atp171
Rp172
sI57
g1
((lp173
I26
aI858
atp174
Rp175
sI58
g1
((lp176
I867
aI19
atp177
Rp178
sI59
g1
((lp179
I1186
aI1055
atp180
Rp181
sI60
g1
((lp182
I358
atp183
Rp184
sI61
g1
((lp185
I625
aI534
atp186
Rp187
sI62
g1
((lp188
I500
aI157
atp189
Rp190
sI63
g1
((lp191
tp192
Rp193
sI64
g1
((lp194
I522
aI642
aI943
atp195
Rp196
sI65
g1
((lp197
I368
aI1090
aI1027
atp198
Rp199
sI66
g1
((lp200
I555
aI285
atp201
Rp202
sI67
g1
((lp203
I360
atp204
Rp205
sI68
g1
((lp206
I804
atp207
Rp208
sI69
g1
((lp209
I993
aI575
aI805
aI287
atp210
Rp211
sI70
g1
((lp212
I222
atp213
Rp214
sI71
g1
((lp215
I560
aI1185
aI1170
aI483
aI746
aI1052
atp216
Rp217
sI72
g1
((lp218
I676
aI1223
atp219
Rp220
sI73
g1
((lp221
I392
aI236
aI342
atp222
Rp223
sI74
g1
((lp224
I1184
aI475
aI699
atp225
Rp226
sI75
g1
((lp227
I425
aI542
atp228
Rp229
sI76
g1
((lp230
I337
aI341
aI501
atp231
Rp232
sI77
g1
((lp233
I11
aI1140
atp234
Rp235
sI78
g1
((lp236
I845
aI574
atp237
Rp238
sI79
g1
((lp239
I848
atp240
Rp241
sI80
g1
((lp242
I977
aI330
atp243
Rp244
sI81
g1
((lp245
I773
atp246
Rp247
sI82
g1
((lp248
I98
aI283
aI258
aI950
atp249
Rp250
sI83
g1
((lp251
I38
aI1231
atp252
Rp253
sI84
g1
((lp254
I386
aI876
aI429
aI693
atp255
Rp256
sI85
g1
((lp257
I410
atp258
Rp259
sI86
g1
((lp260
I924
aI871
atp261
Rp262
sI87
g1
((lp263
I277
aI695
atp264
Rp265
sI88
g1
((lp266
I402
aI1019
aI629
aI1206
aI1067
aI798
atp267
Rp268
sI89
g1
((lp269
I240
aI386
atp270
Rp271
sI90
g1
((lp272
I479
atp273
Rp274
sI91
g1
((lp275
I768
aI995
aI988
atp276
Rp277
sI92
g1
((lp278
I249
aI633
atp279
Rp280
sI93
g1
((lp281
I1227
aI399
atp282
Rp283
sI94
g1
((lp284
I849
aI379
aI532
aI1004
atp285
Rp286
sI95
g1
((lp287
I1226
aI635
aI682
atp288
Rp289
sI96
g1
((lp290
I912
aI610
atp291
Rp292
sI97
g1
((lp293
I1189
aI789
aI783
atp294
Rp295
sI98
g1
((lp296
I82
aI511
atp297
Rp298
sI99
g1
((lp299
I625
aI262
aI55
atp300
Rp301
sI100
g1
((lp302
I754
aI1028
aI573
aI1054
atp303
Rp304
sI101
g1
((lp305
I446
atp306
Rp307
sI102
g1
((lp308
I1160
aI1236
aI215
atp309
Rp310
sI103
g1
((lp311
I984
aI1190
aI54
aI159
atp312
Rp313
sI104
g1
((lp314
I320
aI581
atp315
Rp316
sI105
g1
((lp317
I297
aI458
aI43
aI1147
atp318
Rp319
sI106
g1
((lp320
I9
aI135
aI1077
aI1009
atp321
Rp322
sI107
g1
((lp323
I1219
aI131
atp324
Rp325
sI108
g1
((lp326
I777
aI894
aI254
atp327
Rp328
sI109
g1
((lp329
I1111
aI292
aI1213
aI214
aI759
atp330
Rp331
sI110
g1
((lp332
I201
aI34
aI443
aI501
aI417
atp333
Rp334
sI111
g1
((lp335
I792
aI721
aI594
aI1174
aI295
atp336
Rp337
sI112
g1
((lp338
I299
atp339
Rp340
sI113
g1
((lp341
I1137
atp342
Rp343
sI114
g1
((lp344
I1056
aI772
atp345
Rp346
sI115
g1
((lp347
I867
aI1121
aI299
atp348
Rp349
sI116
g1
((lp350
I539
aI923
aI364
aI798
aI358
atp351
Rp352
sI117
g1
((lp353
I797
atp354
Rp355
sI118
g1
((lp356
I985
aI4
atp357
Rp358
sI119
g1
((lp359
I334
aI647
atp360
Rp361
sI120
g1
((lp362
I416
atp363
Rp364
sI121
g1
((lp365
I1177
aI331
aI155
aI652
aI1026
atp366
Rp367
sI122
g1
((lp368
I633
aI426
aI991
atp369
Rp370
sI123
g1
((lp371
I496
aI231
atp372
Rp373
sI124
g1
((lp374
I271
atp375
Rp376
sI125
g1
((lp377
I305
aI35
aI299
aI375
atp378
Rp379
sI126
g1
((lp380
I937
aI386
atp381
Rp382
sI127
g1
((lp383
I384
aI350
atp384
Rp385
sI128
g1
((lp386
I1045
aI557
atp387
Rp388
sI129
g1
((lp389
I44
atp390
Rp391
sI130
g1
((lp392
I905
aI35
aI917
atp393
Rp394
sI131
g1
((lp395
I107
aI1171
aI1223
atp396
Rp397
sI132
g1
((lp398
tp399
Rp400
sI133
g1
((lp401
I1010
aI935
atp402
Rp403
sI134
g1
((lp404
I961
atp405
Rp406
sI135
g1
((lp407
I857
aI106
aI369
aI1103
atp408
Rp409
sI136
g1
((lp410
I312
aI176
aI434
aI444
atp411
Rp412
sI137
g1
((lp413
I376
aI911
aI479
atp414
Rp415
sI138
g1
((lp416
tp417
Rp418
sI139
g1
((lp419
tp420
Rp421
sI140
g1
((lp422
I994
aI717
atp423
Rp424
sI141
g1
((lp425
I332
atp426
Rp427
sI142
g1
((lp428
I1195
aI583
atp429
Rp430
sI143
g1
((lp431
I520
aI1179
atp432
Rp433
sI144
g1
((lp434
I627
aI645
aI662
aI55
aI683
aI901
atp435
Rp436
sI145
g1
((lp437
I357
aI631
atp438
Rp439
sI146
g1
((lp440
I320
aI925
atp441
Rp442
sI147
g1
((lp443
I577
aI1170
aI19
aI222
aI462
atp444
Rp445
sI148
g1
((lp446
I921
aI770
aI315
atp447
Rp448
sI149
g1
((lp449
I857
atp450
Rp451
sI150
g1
((lp452
tp453
Rp454
sI151
g1
((lp455
I1136
aI26
aI747
atp456
Rp457
sI152
g1
((lp458
I465
aI754
aI862
aI510
atp459
Rp460
sI153
g1
((lp461
I1205
aI972
aI325
aI6
aI717
atp462
Rp463
sI154
g1
((lp464
I735
aI509
aI671
atp465
Rp466
sI155
g1
((lp467
I416
aI121
aI299
aI1025
atp468
Rp469
sI156
g1
((lp470
I1052
aI804
atp471
Rp472
sI157
g1
((lp473
I878
aI1118
aI62
atp474
Rp475
sI158
g1
((lp476
I337
aI846
aI1048
aI713
aI779
aI174
atp477
Rp478
sI159
g1
((lp479
I1072
aI4
aI103
atp480
Rp481
sI160
g1
((lp482
I48
aI808
atp483
Rp484
sI161
g1
((lp485
I168
aI1066
aI471
atp486
Rp487
sI162
g1
((lp488
I209
atp489
Rp490
sI163
g1
((lp491
tp492
Rp493
sI164
g1
((lp494
I393
aI730
aI846
aI247
atp495
Rp496
sI165
g1
((lp497
I792
aI635
aI1058
aI651
aI1100
atp498
Rp499
sI166
g1
((lp500
I1140
aI655
atp501
Rp502
sI167
g1
((lp503
I530
aI1036
atp504
Rp505
sI168
g1
((lp506
I224
aI161
aI413
aI1174
aI777
atp507
Rp508
sI169
g1
((lp509
I1102
atp510
Rp511
sI170
g1
((lp512
I1004
atp513
Rp514
sI171
g1
((lp515
I755
aI324
atp516
Rp517
sI172
g1
((lp518
tp519
Rp520
sI173
g1
((lp521
I1235
aI869
atp522
Rp523
sI174
g1
((lp524
I433
aI925
aI158
atp525
Rp526
sI175
g1
((lp527
I482
atp528
Rp529
sI176
g1
((lp530
I136
aI696
atp531
Rp532
sI177
g1
((lp533
I795
atp534
Rp535
sI178
g1
((lp536
tp537
Rp538
sI179
g1
((lp539
I1120
aI704
aI259
aI848
atp540
Rp541
sI180
g1
((lp542
I515
aI331
atp543
Rp544
sI181
g1
((lp545
I1226
aI1158
atp546
Rp547
sI182
g1
((lp548
tp549
Rp550
sI183
g1
((lp551
tp552
Rp553
sI184
g1
((lp554
I410
atp555
Rp556
sI185
g1
((lp557
I981
atp558
Rp559
sI186
g1
((lp560
I522
aI1084
atp561
Rp562
sI187
g1
((lp563
I315
aI799
atp564
Rp565
sI188
g1
((lp566
I48
aI644
aI28
atp567
Rp568
sI189
g1
((lp569
I434
aI613
aI198
atp570
Rp571
sI190
g1
((lp572
I1106
aI1132
aI431
atp573
Rp574
sI191
g1
((lp575
I1157
aI777
aI701
aI1023
atp576
Rp577
sI192
g1
((lp578
I322
atp579
Rp580
sI193
g1
((lp581
I1106
aI852
aI941
atp582
Rp583
sI194
g1
((lp584
I850
aI907
aI1173
aI343
atp585
Rp586
sI195
g1
((lp587
I1177
aI799
aI735
atp588
Rp589
sI196
g1
((lp590
I616
aI235
aI380
atp591
Rp592
sI197
g1
((lp593
I473
aI437
atp594
Rp595
sI198
g1
((lp596
I189
atp597
Rp598
sI199
g1
((lp599
I1118
atp600
Rp601
sI200
g1
((lp602
I560
atp603
Rp604
sI201
g1
((lp605
I1225
aI110
atp606
Rp607
sI202
g1
((lp608
I870
atp609
Rp610
sI203
g1
((lp611
I952
aI748
aI212
atp612
Rp613
sI204
g1
((lp614
I680
aI812
aI406
aI519
atp615
Rp616
sI205
g1
((lp617
tp618
Rp619
sI206
g1
((lp620
I698
atp621
Rp622
sI207
g1
((lp623
I1149
atp624
Rp625
sI208
g1
((lp626
I548
aI774
aI758
aI399
atp627
Rp628
sI209
g1
((lp629
I40
aI881
aI162
atp630
Rp631
sI210
g1
((lp632
tp633
Rp634
sI211
g1
((lp635
I1013
atp636
Rp637
sI212
g1
((lp638
I203
aI644
atp639
Rp640
sI213
g1
((lp641
I841
aI771
aI644
aI1037
atp642
Rp643
sI214
g1
((lp644
I304
aI610
aI713
aI313
aI109
aI46
atp645
Rp646
sI215
g1
((lp647
I1137
aI102
aI1143
atp648
Rp649
sI216
g1
((lp650
I1192
aI745
atp651
Rp652
sI217
g1
((lp653
I1218
aI1146
aI901
atp654
Rp655
sI218
g1
((lp656
tp657
Rp658
sI219
g1
((lp659
I1195
aI724
aI1110
aI959
atp660
Rp661
sI220
g1
((lp662
I448
aI814
atp663
Rp664
sI221
g1
((lp665
I1111
aI935
aI623
atp666
Rp667
sI222
g1
((lp668
I147
aI28
aI70
atp669
Rp670
sI223
g1
((lp671
I660
aI725
atp672
Rp673
sI224
g1
((lp674
I168
aI1076
aI317
atp675
Rp676
sI225
g1
((lp677
I1188
aI835
aI516
aI949
atp678
Rp679
sI226
g1
((lp680
I1108
aI707
aI428
atp681
Rp682
sI227
g1
((lp683
I605
aI38
atp684
Rp685
sI228
g1
((lp686
I433
aI735
atp687
Rp688
sI229
g1
((lp689
I1060
aI247
atp690
Rp691
sI230
g1
((lp692
I288
aI1100
atp693
Rp694
sI231
g1
((lp695
I123
atp696
Rp697
sI232
g1
((lp698
I414
atp699
Rp700
sI233
g1
((lp701
I912
aI283
aI291
atp702
Rp703
sI234
g1
((lp704
I328
aI926
aI31
atp705
Rp706
sI235
g1
((lp707
I444
aI403
aI196
aI353
atp708
Rp709
sI236
g1
((lp710
I73
aI989
atp711
Rp712
sI237
g1
((lp713
I354
aI950
atp714
Rp715
sI238
g1
((lp716
I19
aI812
aI622
atp717
Rp718
sI239
g1
((lp719
I508
atp720
Rp721
sI240
g1
((lp722
I89
aI818
aI799
aI785
atp723
Rp724
sI241
g1
((lp725
I245
aI927
atp726
Rp727
sI242
g1
((lp728
I493
aI790
atp729
Rp730
sI243
g1
((lp731
tp732
Rp733
sI244
g1
((lp734
I527
atp735
Rp736
sI245
g1
((lp737
I241
aI1098
aI862
atp738
Rp739
sI246
g1
((lp740
I803
aI365
aI454
atp741
Rp742
sI247
g1
((lp743
I528
aI737
aI1203
aI164
aI229
aI326
aI583
aI356
atp744
Rp745
sI248
g1
((lp746
I345
aI402
aI412
aI21
aI1151
atp747
Rp748
sI249
g1
((lp749
I689
aI419
aI92
aI1101
atp750
Rp751
sI250
g1
((lp752
I851
aI876
atp753
Rp754
sI251
g1
((lp755
I30
atp756
Rp757
sI252
g1
((lp758
I1167
atp759
Rp760
sI253
g1
((lp761
I733
atp762
Rp763
sI254
g1
((lp764
I1041
aI1134
aI1193
aI475
aI108
aI430
atp765
Rp766
sI255
g1
((lp767
I1000
atp768
Rp769
sI256
g1
((lp770
I679
atp771
Rp772
sI257
g1
((lp773
I873
aI426
aI1055
atp774
Rp775
sI258
g1
((lp776
I82
atp777
Rp778
sI259
g1
((lp779
I345
aI179
aI1182
aI559
atp780
Rp781
sI260
g1
((lp782
I1115
aI31
atp783
Rp784
sI261
g1
((lp785
I691
aI596
aI927
atp786
Rp787
sI262
g1
((lp788
I1145
aI99
aI910
aI1095
atp789
Rp790
sI263
g1
((lp791
I997
atp792
Rp793
sI264
g1
((lp794
I817
aI827
aI637
aI327
atp795
Rp796
sI265
g1
((lp797
I1195
aI1020
atp798
Rp799
sI266
g1
((lp800
I25
aI981
atp801
Rp802
sI267
g1
((lp803
I511
atp804
Rp805
sI268
g1
((lp806
I320
aI1062
atp807
Rp808
sI269
g1
((lp809
tp810
Rp811
sI270
g1
((lp812
I553
aI538
aI564
aI383
atp813
Rp814
sI271
g1
((lp815
I33
aI124
aI22
atp816
Rp817
sI272
g1
((lp818
I537
atp819
Rp820
sI273
g1
((lp821
tp822
Rp823
sI274
g1
((lp824
I1181
aI1077
aI311
atp825
Rp826
sI275
g1
((lp827
I1176
atp828
Rp829
sI276
g1
((lp830
I1
aI38
atp831
Rp832
sI277
g1
((lp833
I1139
aI836
aI766
aI87
atp834
Rp835
sI278
g1
((lp836
I28
aI421
aI550
aI1071
atp837
Rp838
sI279
g1
((lp839
I780
aI885
atp840
Rp841
sI280
g1
((lp842
tp843
Rp844
sI281
g1
((lp845
I752
aI780
atp846
Rp847
sI282
g1
((lp848
I1144
aI1208
atp849
Rp850
sI283
g1
((lp851
I233
aI82
aI841
aI769
atp852
Rp853
sI284
g1
((lp854
I715
aI535
atp855
Rp856
sI285
g1
((lp857
I66
aI734
atp858
Rp859
sI286
g1
((lp860
I331
atp861
Rp862
sI287
g1
((lp863
I69
aI678
atp864
Rp865
sI288
g1
((lp866
I230
aI935
atp867
Rp868
sI289
g1
((lp869
I759
aI1063
atp870
Rp871
sI290
g1
((lp872
I825
aI3
atp873
Rp874
sI291
g1
((lp875
I233
aI314
aI666
atp876
Rp877
sI292
g1
((lp878
I1161
aI1082
aI819
aI109
aI1022
atp879
Rp880
sI293
g1
((lp881
tp882
Rp883
sI294
g1
((lp884
I973
atp885
Rp886
sI295
g1
((lp887
I111
atp888
Rp889
sI296
g1
((lp890
I50
aI439
atp891
Rp892
sI297
g1
((lp893
I105
aI426
aI754
aI630
atp894
Rp895
sI298
g1
((lp896
I561
aI875
aI1100
aI1055
atp897
Rp898
sI299
g1
((lp899
I339
aI4
aI330
aI427
aI112
aI594
aI115
aI1108
aI155
aI316
aI125
atp900
Rp901
sI300
g1
((lp902
I408
aI491
aI517
atp903
Rp904
sI301
g1
((lp905
I1150
atp906
Rp907
sI302
g1
((lp908
I372
atp909
Rp910
sI303
g1
((lp911
I712
aI1165
aI733
aI559
atp912
Rp913
sI304
g1
((lp914
I1138
aI637
aI214
atp915
Rp916
sI305
g1
((lp917
I920
aI125
aI791
atp918
Rp919
sI306
g1
((lp920
I384
aI713
aI588
aI1045
aI852
atp921
Rp922
sI307
g1
((lp923
I1187
atp924
Rp925
sI308
g1
((lp926
I953
atp927
Rp928
sI309
g1
((lp929
I1088
aI1128
aI368
atp930
Rp931
sI310
g1
((lp932
I779
aI895
atp933
Rp934
sI311
g1
((lp935
I274
atp936
Rp937
sI312
g1
((lp938
I136
atp939
Rp940
sI313
g1
((lp941
I19
aI214
atp942
Rp943
sI314
g1
((lp944
I658
aI291
atp945
Rp946
sI315
g1
((lp947
I408
aI187
aI148
aI1213
atp948
Rp949
sI316
g1
((lp950
I347
aI299
aI780
aI519
atp951
Rp952
sI317
g1
((lp953
I224
aI939
aI875
aI917
aI359
aI1192
aI27
aI1212
aI429
aI431
atp954
Rp955
sI318
g1
((lp956
I1117
atp957
Rp958
sI319
g1
((lp959
I755
aI475
atp960
Rp961
sI320
g1
((lp962
I104
aI9
aI146
aI268
atp963
Rp964
sI321
g1
((lp965
I1024
aI761
aI685
atp966
Rp967
sI322
g1
((lp968
I192
aI562
aI1083
aI946
aI695
atp969
Rp970
sI323
g1
((lp971
I1153
atp972
Rp973
sI324
g1
((lp974
I11
aI171
aI12
atp975
Rp976
sI325
g1
((lp977
I153
aI1049
atp978
Rp979
sI326
g1
((lp980
I892
aI38
aI247
atp981
Rp982
sI327
g1
((lp983
I720
aI641
aI930
aI805
aI264
aI1209
atp984
Rp985
sI328
g1
((lp986
I234
aI499
aI870
atp987
Rp988
sI329
g1
((lp989
tp990
Rp991
sI330
g1
((lp992
I80
aI346
aI299
atp993
Rp994
sI331
g1
((lp995
I121
aI571
aI180
aI1070
aI286
atp996
Rp997
sI332
g1
((lp998
I1108
aI562
aI780
aI141
atp999
Rp1000
sI333
g1
((lp1001
I1050
aI923
atp1002
Rp1003
sI334
g1
((lp1004
I673
aI1053
aI119
atp1005
Rp1006
sI335
g1
((lp1007
tp1008
Rp1009
sI336
g1
((lp1010
tp1011
Rp1012
sI337
g1
((lp1013
I1154
aI76
aI158
atp1014
Rp1015
sI338
g1
((lp1016
I818
atp1017
Rp1018
sI339
g1
((lp1019
I609
aI827
aI628
aI582
aI593
aI519
aI299
atp1020
Rp1021
sI340
g1
((lp1022
I968
aI1097
aI764
aI542
atp1023
Rp1024
sI341
g1
((lp1025
I76
aI879
atp1026
Rp1027
sI342
g1
((lp1028
I73
aI804
aI998
atp1029
Rp1030
sI343
g1
((lp1031
I194
aI459
aI1012
aI626
aI491
atp1032
Rp1033
sI344
g1
((lp1034
tp1035
Rp1036
sI345
g1
((lp1037
I248
aI259
aI740
aI621
aI814
atp1038
Rp1039
sI346
g1
((lp1040
I330
aI941
atp1041
Rp1042
sI347
g1
((lp1043
I316
aI405
aI734
atp1044
Rp1045
sI348
g1
((lp1046
I827
atp1047
Rp1048
sI349
g1
((lp1049
I720
aI1
aI1002
atp1050
Rp1051
sI350
g1
((lp1052
I588
aI998
aI127
atp1053
Rp1054
sI351
g1
((lp1055
I608
aI954
aI445
atp1056
Rp1057
sI352
g1
((lp1058
tp1059
Rp1060
sI353
g1
((lp1061
I866
aI235
aI671
atp1062
Rp1063
sI354
g1
((lp1064
I912
aI737
aI1035
aI237
aI597
atp1065
Rp1066
sI355
g1
((lp1067
I594
atp1068
Rp1069
sI356
g1
((lp1070
I376
aI247
atp1071
Rp1072
sI357
g1
((lp1073
I1040
aI145
aI1037
aI1086
atp1074
Rp1075
sI358
g1
((lp1076
I116
aI659
aI60
aI931
aI585
atp1077
Rp1078
sI359
g1
((lp1079
I426
aI611
aI317
aI1142
atp1080
Rp1081
sI360
g1
((lp1082
I585
aI67
atp1083
Rp1084
sI361
g1
((lp1085
I587
aI1135
atp1086
Rp1087
sI362
g1
((lp1088
I845
atp1089
Rp1090
sI363
g1
((lp1091
I22
aI967
atp1092
Rp1093
sI364
g1
((lp1094
I116
atp1095
Rp1096
sI365
g1
((lp1097
I507
aI246
atp1098
Rp1099
sI366
g1
((lp1100
tp1101
Rp1102
sI367
g1
((lp1103
I1064
aI1018
aI923
aI868
aI517
atp1104
Rp1105
sI368
g1
((lp1106
I65
aI971
aI309
aI509
atp1107
Rp1108
sI369
g1
((lp1109
I408
aI135
atp1110
Rp1111
sI370
g1
((lp1112
I0
aI1224
aI1187
atp1113
Rp1114
sI371
g1
((lp1115
I441
aI811
aI1022
atp1116
Rp1117
sI372
g1
((lp1118
I302
aI1135
atp1119
Rp1120
sI373
g1
((lp1121
I627
aI709
aI1150
atp1122
Rp1123
sI374
g1
((lp1124
I1005
aI966
atp1125
Rp1126
sI375
g1
((lp1127
I1170
aI125
atp1128
Rp1129
sI376
g1
((lp1130
I137
aI356
atp1131
Rp1132
sI377
g1
((lp1133
I993
aI947
atp1134
Rp1135
sI378
g1
((lp1136
I1191
atp1137
Rp1138
sI379
g1
((lp1139
I1195
aI94
atp1140
Rp1141
sI380
g1
((lp1142
I612
aI196
aI1175
atp1143
Rp1144
sI381
g1
((lp1145
I1081
aI851
aI636
aI499
atp1146
Rp1147
sI382
g1
((lp1148
I1233
aI1102
aI950
aI862
atp1149
Rp1150
sI383
g1
((lp1151
I472
aI691
aI270
atp1152
Rp1153
sI384
g1
((lp1154
I306
aI668
aI127
atp1155
Rp1156
sI385
g1
((lp1157
tp1158
Rp1159
sI386
g1
((lp1160
I84
aI517
aI726
aI985
aI89
aI126
atp1161
Rp1162
sI387
g1
((lp1163
I963
atp1164
Rp1165
sI388
g1
((lp1166
I848
atp1167
Rp1168
sI389
g1
((lp1169
I481
aI820
aI581
aI1060
atp1170
Rp1171
sI390
g1
((lp1172
I537
aI581
atp1173
Rp1174
sI391
g1
((lp1175
tp1176
Rp1177
sI392
g1
((lp1178
I73
atp1179
Rp1180
sI393
g1
((lp1181
I164
aI686
atp1182
Rp1183
sI394
g1
((lp1184
tp1185
Rp1186
sI395
g1
((lp1187
I665
atp1188
Rp1189
sI396
g1
((lp1190
I1144
aI808
aI1215
aI655
atp1191
Rp1192
sI397
g1
((lp1193
I1117
aI1095
atp1194
Rp1195
sI398
g1
((lp1196
I979
aI651
aI743
aI1019
atp1197
Rp1198
sI399
g1
((lp1199
I208
aI93
atp1200
Rp1201
sI400
g1
((lp1202
I994
aI515
atp1203
Rp1204
sI401
g1
((lp1205
I721
aI493
aI671
atp1206
Rp1207
sI402
g1
((lp1208
I1008
aI248
aI981
aI832
aI897
aI88
aI495
atp1209
Rp1210
sI403
g1
((lp1211
I235
atp1212
Rp1213
sI404
g1
((lp1214
I42
atp1215
Rp1216
sI405
g1
((lp1217
I347
aI4
atp1218
Rp1219
sI406
g1
((lp1220
I868
aI204
atp1221
Rp1222
sI407
g1
((lp1223
tp1224
Rp1225
sI408
g1
((lp1226
I369
aI315
aI300
atp1227
Rp1228
sI409
g1
((lp1229
I787
aI684
aI694
atp1230
Rp1231
sI410
g1
((lp1232
I1016
aI85
aI568
aI184
aI426
aI661
atp1233
Rp1234
sI411
g1
((lp1235
I442
atp1236
Rp1237
sI412
g1
((lp1238
I248
aI1089
atp1239
Rp1240
sI413
g1
((lp1241
I168
aI1107
atp1242
Rp1243
sI414
g1
((lp1244
I232
aI836
aI959
atp1245
Rp1246
sI415
g1
((lp1247
tp1248
Rp1249
sI416
g1
((lp1250
I120
aI155
atp1251
Rp1252
sI417
g1
((lp1253
I571
aI110
atp1254
Rp1255
sI418
g1
((lp1256
I580
aI741
atp1257
Rp1258
sI419
g1
((lp1259
I249
aI1063
atp1260
Rp1261
sI420
g1
((lp1262
I517
aI861
atp1263
Rp1264
sI421
g1
((lp1265
I520
aI278
atp1266
Rp1267
sI422
g1
((lp1268
I454
atp1269
Rp1270
sI423
g1
((lp1271
I1150
atp1272
Rp1273
sI424
g1
((lp1274
tp1275
Rp1276
sI425
g1
((lp1277
I75
atp1278
Rp1279
sI426
g1
((lp1280
I257
aI51
aI359
aI297
aI122
aI410
atp1281
Rp1282
sI427
g1
((lp1283
I299
aI567
atp1284
Rp1285
sI428
g1
((lp1286
I226
aI1186
aI1134
aI983
atp1287
Rp1288
sI429
g1
((lp1289
I716
aI84
aI317
atp1290
Rp1291
sI430
g1
((lp1292
I254
atp1293
Rp1294
sI431
g1
((lp1295
I1208
aI317
aI190
atp1296
Rp1297
sI432
g1
((lp1298
I1043
atp1299
Rp1300
sI433
g1
((lp1301
I228
aI1125
aI662
aI776
aI555
aI174
atp1302
Rp1303
sI434
g1
((lp1304
I1112
aI548
aI136
aI980
aI508
aI189
aI799
atp1305
Rp1306
sI435
g1
((lp1307
I755
atp1308
Rp1309
sI436
g1
((lp1310
I899
aI979
aI919
atp1311
Rp1312
sI437
g1
((lp1313
I978
aI197
atp1314
Rp1315
sI438
g1
((lp1316
tp1317
Rp1318
sI439
g1
((lp1319
I296
aI603
aI1126
atp1320
Rp1321
sI440
g1
((lp1322
I960
aI1187
aI878
atp1323
Rp1324
sI441
g1
((lp1325
I561
aI634
aI371
aI566
aI715
atp1326
Rp1327
sI442
g1
((lp1328
I783
aI411
aI475
aI763
atp1329
Rp1330
sI443
g1
((lp1331
I110
atp1332
Rp1333
sI444
g1
((lp1334
I136
aI16
aI762
aI235
atp1335
Rp1336
sI445
g1
((lp1337
I938
aI663
aI517
aI21
aI351
atp1338
Rp1339
sI446
g1
((lp1340
I101
atp1341
Rp1342
sI447
g1
((lp1343
I513
aI581
atp1344
Rp1345
sI448
g1
((lp1346
I704
aI220
aI1029
atp1347
Rp1348
sI449
g1
((lp1349
I946
atp1350
Rp1351
sI450
g1
((lp1352
I1086
aI670
atp1353
Rp1354
sI451
g1
((lp1355
tp1356
Rp1357
sI452
g1
((lp1358
I49
atp1359
Rp1360
sI453
g1
((lp1361
tp1362
Rp1363
sI454
g1
((lp1364
I422
aI246
atp1365
Rp1366
sI455
g1
((lp1367
I696
atp1368
Rp1369
sI456
g1
((lp1370
I564
atp1371
Rp1372
sI457
g1
((lp1373
I1189
atp1374
Rp1375
sI458
g1
((lp1376
I105
aI899
aI1011
atp1377
Rp1378
sI459
g1
((lp1379
I741
aI343
atp1380
Rp1381
sI460
g1
((lp1382
I499
atp1383
Rp1384
sI461
g1
((lp1385
I564
aI999
atp1386
Rp1387
sI462
g1
((lp1388
I560
aI147
aI548
aI467
atp1389
Rp1390
sI463
g1
((lp1391
I998
aI566
aI943
atp1392
Rp1393
sI464
g1
((lp1394
I953
aI738
aI574
atp1395
Rp1396
sI465
g1
((lp1397
I152
aI1041
aI509
aI885
atp1398
Rp1399
sI466
g1
((lp1400
tp1401
Rp1402
sI467
g1
((lp1403
I462
atp1404
Rp1405
sI468
g1
((lp1406
I695
atp1407
Rp1408
sI469
g1
((lp1409
I913
aI1019
aI630
aI511
atp1410
Rp1411
sI470
g1
((lp1412
I963
atp1413
Rp1414
sI471
g1
((lp1415
I161
aI618
aI572
atp1416
Rp1417
sI472
g1
((lp1418
I383
atp1419
Rp1420
sI473
g1
((lp1421
I1222
aI1
aI763
aI197
aI547
atp1422
Rp1423
sI474
g1
((lp1424
I831
atp1425
Rp1426
sI475
g1
((lp1427
I74
aI630
aI442
aI254
aI319
atp1428
Rp1429
sI476
g1
((lp1430
I731
atp1431
Rp1432
sI477
g1
((lp1433
I1059
atp1434
Rp1435
sI478
g1
((lp1436
I738
atp1437
Rp1438
sI479
g1
((lp1439
I137
aI90
atp1440
Rp1441
sI480
g1
((lp1442
I880
aI1042
atp1443
Rp1444
sI481
g1
((lp1445
I804
aI389
atp1446
Rp1447
sI482
g1
((lp1448
I175
atp1449
Rp1450
sI483
g1
((lp1451
I1183
aI71
atp1452
Rp1453
sI484
g1
((lp1454
I832
aI874
aI558
atp1455
Rp1456
sI485
g1
((lp1457
I1099
atp1458
Rp1459
sI486
g1
((lp1460
tp1461
Rp1462
sI487
g1
((lp1463
I24
aI899
aI724
aI894
atp1464
Rp1465
sI488
g1
((lp1466
I933
atp1467
Rp1468
sI489
g1
((lp1469
I842
aI1163
atp1470
Rp1471
sI490
g1
((lp1472
tp1473
Rp1474
sI491
g1
((lp1475
I300
aI894
aI343
atp1476
Rp1477
sI492
g1
((lp1478
tp1479
Rp1480
sI493
g1
((lp1481
I1208
aI401
aI242
aI689
atp1482
Rp1483
sI494
g1
((lp1484
I1052
atp1485
Rp1486
sI495
g1
((lp1487
I402
aI834
aI670
atp1488
Rp1489
sI496
g1
((lp1490
I1169
aI1082
aI123
atp1491
Rp1492
sI497
g1
((lp1493
I899
aI854
atp1494
Rp1495
sI498
g1
((lp1496
tp1497
Rp1498
sI499
g1
((lp1499
I328
aI460
aI381
atp1500
Rp1501
sI500
g1
((lp1502
I62
atp1503
Rp1504
sI501
g1
((lp1505
I681
aI76
aI110
aI551
atp1506
Rp1507
sI502
g1
((lp1508
I728
aI776
aI999
atp1509
Rp1510
sI503
g1
((lp1511
I1160
aI851
atp1512
Rp1513
sI504
g1
((lp1514
I597
aI1166
atp1515
Rp1516
sI505
g1
((lp1517
tp1518
Rp1519
sI506
g1
((lp1520
I1057
aI794
atp1521
Rp1522
sI507
g1
((lp1523
I715
aI365
aI1022
atp1524
Rp1525
sI508
g1
((lp1526
I809
aI434
aI239
atp1527
Rp1528
sI509
g1
((lp1529
I368
aI465
aI154
aI1056
atp1530
Rp1531
sI510
g1
((lp1532
I152
aI1025
aI850
aI551
atp1533
Rp1534
sI511
g1
((lp1535
I98
aI469
aI664
aI1103
aI267
aI645
atp1536
Rp1537
sI512
g1
((lp1538
I937
atp1539
Rp1540
sI513
g1
((lp1541
I1097
aI1042
aI14
aI447
atp1542
Rp1543
sI514
g1
((lp1544
tp1545
Rp1546
sI515
g1
((lp1547
I400
aI180
atp1548
Rp1549
sI516
g1
((lp1550
I225
aI615
atp1551
Rp1552
sI517
g1
((lp1553
I386
aI1082
aI420
aI793
aI786
aI300
aI445
aI367
atp1554
Rp1555
sI518
g1
((lp1556
I769
aI1188
atp1557
Rp1558
sI519
g1
((lp1559
I316
aI339
aI204
aI1147
aI1225
atp1560
Rp1561
sI520
g1
((lp1562
I645
aI778
aI143
aI844
aI542
aI421
atp1563
Rp1564
sI521
g1
((lp1565
I634
atp1566
Rp1567
sI522
g1
((lp1568
I64
aI186
aI986
aI863
atp1569
Rp1570
sI523
g1
((lp1571
I789
atp1572
Rp1573
sI524
g1
((lp1574
I697
aI573
atp1575
Rp1576
sI525
g1
((lp1577
I1210
aI31
atp1578
Rp1579
sI526
g1
((lp1580
I1128
atp1581
Rp1582
sI527
g1
((lp1583
I897
aI916
aI244
aI13
aI989
atp1584
Rp1585
sI528
g1
((lp1586
I604
aI247
atp1587
Rp1588
sI529
g1
((lp1589
I953
atp1590
Rp1591
sI530
g1
((lp1592
I1136
aI41
aI855
aI1196
aI167
atp1593
Rp1594
sI531
g1
((lp1595
I857
aI682
atp1596
Rp1597
sI532
g1
((lp1598
I1081
aI635
aI94
atp1599
Rp1600
sI533
g1
((lp1601
I816
aI841
atp1602
Rp1603
sI534
g1
((lp1604
I61
aI1111
atp1605
Rp1606
sI535
g1
((lp1607
I1009
aI284
aI1132
atp1608
Rp1609
sI536
g1
((lp1610
tp1611
Rp1612
sI537
g1
((lp1613
I272
aI390
atp1614
Rp1615
sI538
g1
((lp1616
I1188
aI270
atp1617
Rp1618
sI539
g1
((lp1619
I907
aI116
aI1046
atp1620
Rp1621
sI540
g1
((lp1622
I1082
aI875
aI997
atp1623
Rp1624
sI541
g1
((lp1625
I656
aI602
atp1626
Rp1627
sI542
g1
((lp1628
I520
aI1027
aI75
aI340
atp1629
Rp1630
sI543
g1
((lp1631
I553
aI1029
atp1632
Rp1633
sI544
g1
((lp1634
I1080
aI1208
aI650
aI678
atp1635
Rp1636
sI545
g1
((lp1637
I564
atp1638
Rp1639
sI546
g1
((lp1640
I826
aI1190
atp1641
Rp1642
sI547
g1
((lp1643
I1120
aI473
aI1208
aI12
aI861
atp1644
Rp1645
sI548
g1
((lp1646
I208
aI737
aI434
aI675
aI462
atp1647
Rp1648
sI549
g1
((lp1649
tp1650
Rp1651
sI550
g1
((lp1652
I278
atp1653
Rp1654
sI551
g1
((lp1655
I501
aI510
atp1656
Rp1657
sI552
g1
((lp1658
I899
atp1659
Rp1660
sI553
g1
((lp1661
I869
aI270
aI543
atp1662
Rp1663
sI554
g1
((lp1664
I633
aI803
aI965
atp1665
Rp1666
sI555
g1
((lp1667
I433
aI66
atp1668
Rp1669
sI556
g1
((lp1670
I44
atp1671
Rp1672
sI557
g1
((lp1673
I128
aI761
aI948
aI613
atp1674
Rp1675
sI558
g1
((lp1676
I484
atp1677
Rp1678
sI559
g1
((lp1679
I259
aI27
aI739
aI303
atp1680
Rp1681
sI560
g1
((lp1682
I200
aI717
aI462
aI71
atp1683
Rp1684
sI561
g1
((lp1685
I441
aI298
atp1686
Rp1687
sI562
g1
((lp1688
I16
aI322
aI332
aI677
atp1689
Rp1690
sI563
g1
((lp1691
I842
atp1692
Rp1693
sI564
g1
((lp1694
I545
aI456
aI635
aI636
aI461
aI270
aI959
atp1695
Rp1696
sI565
g1
((lp1697
I928
aI918
aI1087
atp1698
Rp1699
sI566
g1
((lp1700
I441
aI463
atp1701
Rp1702
sI567
g1
((lp1703
I427
atp1704
Rp1705
sI568
g1
((lp1706
I410
aI892
aI583
atp1707
Rp1708
sI569
g1
((lp1709
I1041
aI687
aI807
atp1710
Rp1711
sI570
g1
((lp1712
I913
aI828
atp1713
Rp1714
sI571
g1
((lp1715
I417
aI331
atp1716
Rp1717
sI572
g1
((lp1718
I983
aI471
atp1719
Rp1720
sI573
g1
((lp1721
I912
aI100
aI524
aI909
atp1722
Rp1723
sI574
g1
((lp1724
I464
aI714
aI78
atp1725
Rp1726
sI575
g1
((lp1727
I648
aI1224
aI69
aI1119
atp1728
Rp1729
sI576
g1
((lp1730
I1083
atp1731
Rp1732
sI577
g1
((lp1733
I147
aI741
aI1150
atp1734
Rp1735
sI578
g1
((lp1736
I1048
atp1737
Rp1738
sI579
g1
((lp1739
I721
aI1068
atp1740
Rp1741
sI580
g1
((lp1742
I418
aI1171
aI925
aI1134
atp1743
Rp1744
sI581
g1
((lp1745
I800
aI883
aI389
aI390
aI104
aI981
aI1078
aI1114
aI447
atp1746
Rp1747
sI582
g1
((lp1748
I339
aI894
atp1749
Rp1750
sI583
g1
((lp1751
I568
aI25
aI142
aI247
atp1752
Rp1753
sI584
g1
((lp1754
I1124
atp1755
Rp1756
sI585
g1
((lp1757
I360
aI358
atp1758
Rp1759
sI586
g1
((lp1760
I764
aI935
atp1761
Rp1762
sI587
g1
((lp1763
I361
aI906
aI687
atp1764
Rp1765
sI588
g1
((lp1766
I306
aI350
atp1767
Rp1768
sI589
g1
((lp1769
I995
atp1770
Rp1771
sI590
g1
((lp1772
I1100
aI790
atp1773
Rp1774
sI591
g1
((lp1775
I873
aI961
atp1776
Rp1777
sI592
g1
((lp1778
I936
aI42
aI902
atp1779
Rp1780
sI593
g1
((lp1781
I339
aI751
atp1782
Rp1783
sI594
g1
((lp1784
I355
aI863
aI299
aI111
atp1785
Rp1786
sI595
g1
((lp1787
I1179
atp1788
Rp1789
sI596
g1
((lp1790
I608
aI261
atp1791
Rp1792
sI597
g1
((lp1793
I504
aI354
aI779
aI973
aI39
atp1794
Rp1795
sI598
g1
((lp1796
tp1797
Rp1798
sI599
g1
((lp1799
I1025
atp1800
Rp1801
sI600
g1
((lp1802
I825
aI805
aI873
atp1803
Rp1804
sI601
g1
((lp1805
tp1806
Rp1807
sI602
g1
((lp1808
I752
aI541
aI1165
atp1809
Rp1810
sI603
g1
((lp1811
I439
atp1812
Rp1813
sI604
g1
((lp1814
I528
aI667
atp1815
Rp1816
sI605
g1
((lp1817
I227
aI805
aI639
atp1818
Rp1819
sI606
g1
((lp1820
I1129
atp1821
Rp1822
sI607
g1
((lp1823
I730
aI1183
atp1824
Rp1825
sI608
g1
((lp1826
I596
aI1030
aI351
atp1827
Rp1828
sI609
g1
((lp1829
I1043
aI1104
aI339
atp1830
Rp1831
sI610
g1
((lp1832
I96
aI214
atp1833
Rp1834
sI611
g1
((lp1835
I795
aI359
atp1836
Rp1837
sI612
g1
((lp1838
I380
atp1839
Rp1840
sI613
g1
((lp1841
I667
aI557
aI189
atp1842
Rp1843
sI614
g1
((lp1844
tp1845
Rp1846
sI615
g1
((lp1847
I729
aI516
atp1848
Rp1849
sI616
g1
((lp1850
I924
aI834
aI196
atp1851
Rp1852
sI617
g1
((lp1853
I1170
aI934
atp1854
Rp1855
sI618
g1
((lp1856
I1017
aI863
aI979
aI471
atp1857
Rp1858
sI619
g1
((lp1859
tp1860
Rp1861
sI620
g1
((lp1862
tp1863
Rp1864
sI621
g1
((lp1865
I345
atp1866
Rp1867
sI622
g1
((lp1868
I814
aI238
atp1869
Rp1870
sI623
g1
((lp1871
I221
atp1872
Rp1873
sI624
g1
((lp1874
tp1875
Rp1876
sI625
g1
((lp1877
I99
aI61
atp1878
Rp1879
sI626
g1
((lp1880
I343
atp1881
Rp1882
sI627
g1
((lp1883
I144
aI1057
aI690
aI373
atp1884
Rp1885
sI628
g1
((lp1886
I339
aI1174
atp1887
Rp1888
sI629
g1
((lp1889
I88
aI828
atp1890
Rp1891
sI630
g1
((lp1892
I297
aI475
aI469
aI811
atp1893
Rp1894
sI631
g1
((lp1895
I145
aI785
aI1145
atp1896
Rp1897
sI632
g1
((lp1898
I998
atp1899
Rp1900
sI633
g1
((lp1901
I1108
aI122
aI92
aI554
aI14
atp1902
Rp1903
sI634
g1
((lp1904
I441
aI958
aI521
atp1905
Rp1906
sI635
g1
((lp1907
I564
aI794
aI532
aI165
aI95
atp1908
Rp1909
sI636
g1
((lp1910
I881
aI1179
aI564
aI381
atp1911
Rp1912
sI637
g1
((lp1913
I304
aI264
atp1914
Rp1915
sI638
g1
((lp1916
I1040
aI1120
aI1217
atp1917
Rp1918
sI639
g1
((lp1919
I1226
aI1116
aI605
aI46
aI927
atp1920
Rp1921
sI640
g1
((lp1922
tp1923
Rp1924
sI641
g1
((lp1925
I855
aI327
atp1926
Rp1927
sI642
g1
((lp1928
I64
atp1929
Rp1930
sI643
g1
((lp1931
I678
atp1932
Rp1933
sI644
g1
((lp1934
I188
aI212
aI213
aI909
atp1935
Rp1936
sI645
g1
((lp1937
I144
aI520
aI52
aI741
aI511
atp1938
Rp1939
sI646
g1
((lp1940
tp1941
Rp1942
sI647
g1
((lp1943
I691
aI1215
aI750
aI119
atp1944
Rp1945
sI648
g1
((lp1946
I575
atp1947
Rp1948
sI649
g1
((lp1949
I1053
atp1950
Rp1951
sI650
g1
((lp1952
I544
aI965
aI845
atp1953
Rp1954
sI651
g1
((lp1955
I797
aI165
aI398
aI47
atp1956
Rp1957
sI652
g1
((lp1958
I121
aI730
aI1107
atp1959
Rp1960
sI653
g1
((lp1961
I720
aI36
atp1962
Rp1963
sI654
g1
((lp1964
I1140
atp1965
Rp1966
sI655
g1
((lp1967
I396
aI166
atp1968
Rp1969
sI656
g1
((lp1970
I541
atp1971
Rp1972
sI657
g1
((lp1973
I668
aI759
atp1974
Rp1975
sI658
g1
((lp1976
I314
aI902
atp1977
Rp1978
sI659
g1
((lp1979
I770
aI358
atp1980
Rp1981
sI660
g1
((lp1982
I676
aI223
atp1983
Rp1984
sI661
g1
((lp1985
I704
aI937
aI410
atp1986
Rp1987
sI662
g1
((lp1988
I144
aI433
aI760
atp1989
Rp1990
sI663
g1
((lp1991
I445
atp1992
Rp1993
sI664
g1
((lp1994
I756
aI511
atp1995
Rp1996
sI665
g1
((lp1997
I1232
aI868
aI996
aI395
aI973
aI846
atp1998
Rp1999
sI666
g1
((lp2000
I968
aI920
aI291
aI667
atp2001
Rp2002
sI667
g1
((lp2003
I1008
aI666
aI604
aI613
atp2004
Rp2005
sI668
g1
((lp2006
I384
aI657
aI975
atp2007
Rp2008
sI669
g1
((lp2009
I793
aI15
atp2010
Rp2011
sI670
g1
((lp2012
I450
aI876
aI495
atp2013
Rp2014
sI671
g1
((lp2015
I353
aI154
aI1007
aI876
aI401
atp2016
Rp2017
sI672
g1
((lp2018
I909
atp2019
Rp2020
sI673
g1
((lp2021
I1176
aI30
aI334
atp2022
Rp2023
sI674
g1
((lp2024
tp2025
Rp2026
sI675
g1
((lp2027
I987
aI548
aI822
atp2028
Rp2029
sI676
g1
((lp2030
I72
aI660
aI1063
atp2031
Rp2032
sI677
g1
((lp2033
I562
aI1167
atp2034
Rp2035
sI678
g1
((lp2036
I544
aI643
aI1140
aI1160
aI287
aI1055
atp2037
Rp2038
sI679
g1
((lp2039
I256
atp2040
Rp2041
sI680
g1
((lp2042
I204
atp2043
Rp2044
sI681
g1
((lp2045
I730
aI501
aI1178
atp2046
Rp2047
sI682
g1
((lp2048
I1002
aI531
aI967
aI95
atp2049
Rp2050
sI683
g1
((lp2051
I144
atp2052
Rp2053
sI684
g1
((lp2054
I409
aI51
atp2055
Rp2056
sI685
g1
((lp2057
I321
aI1060
atp2058
Rp2059
sI686
g1
((lp2060
I393
aI1129
atp2061
Rp2062
sI687
g1
((lp2063
I569
aI587
aI1235
aI1113
atp2064
Rp2065
sI688
g1
((lp2066
tp2067
Rp2068
sI689
g1
((lp2069
I249
aI1013
aI493
aI943
atp2070
Rp2071
sI690
g1
((lp2072
I1058
aI627
atp2073
Rp2074
sI691
g1
((lp2075
I1217
aI647
aI261
aI1126
aI383
atp2076
Rp2077
sI692
g1
((lp2078
I693
aI750
atp2079
Rp2080
sI693
g1
((lp2081
I692
aI1111
aI84
aI1095
atp2082
Rp2083
sI694
g1
((lp2084
I409
aI1002
aI1237
aI943
atp2085
Rp2086
sI695
g1
((lp2087
I322
aI468
aI990
aI87
atp2088
Rp2089
sI696
g1
((lp2090
I176
aI737
aI1063
aI455
atp2091
Rp2092
sI697
g1
((lp2093
I524
aI890
aI36
aI980
atp2094
Rp2095
sI698
g1
((lp2096
I206
atp2097
Rp2098
sI699
g1
((lp2099
I74
atp2100
Rp2101
sI700
g1
((lp2102
I25
aI9
atp2103
Rp2104
sI701
g1
((lp2105
I785
aI989
aI1078
aI191
atp2106
Rp2107
sI702
g1
((lp2108
I1182
atp2109
Rp2110
sI703
g1
((lp2111
I1052
atp2112
Rp2113
sI704
g1
((lp2114
I448
aI179
aI661
aI1135
atp2115
Rp2116
sI705
g1
((lp2117
I1052
atp2118
Rp2119
sI706
g1
((lp2120
I1055
atp2121
Rp2122
sI707
g1
((lp2123
I48
aI226
atp2124
Rp2125
sI708
g1
((lp2126
I859
atp2127
Rp2128
sI709
g1
((lp2129
I737
aI373
aI958
atp2130
Rp2131
sI710
g1
((lp2132
I969
atp2133
Rp2134
sI711
g1
((lp2135
I742
atp2136
Rp2137
sI712
g1
((lp2138
I922
aI303
atp2139
Rp2140
sI713
g1
((lp2141
I721
aI306
aI795
aI214
aI158
atp2142
Rp2143
sI714
g1
((lp2144
I574
aI1215
atp2145
Rp2146
sI715
g1
((lp2147
I441
aI507
aI284
atp2148
Rp2149
sI716
g1
((lp2150
I429
atp2151
Rp2152
sI717
g1
((lp2153
I16
aI153
aI140
aI560
atp2154
Rp2155
sI718
g1
((lp2156
I945
atp2157
Rp2158
sI719
g1
((lp2159
tp2160
Rp2161
sI720
g1
((lp2162
I25
aI653
aI349
aI327
atp2163
Rp2164
sI721
g1
((lp2165
I0
aI401
aI713
aI579
aI111
atp2166
Rp2167
sI722
g1
((lp2168
I13
atp2169
Rp2170
sI723
g1
((lp2171
I1083
atp2172
Rp2173
sI724
g1
((lp2174
I1113
aI219
aI487
atp2175
Rp2176
sI725
g1
((lp2177
I223
atp2178
Rp2179
sI726
g1
((lp2180
I386
aI754
atp2181
Rp2182
sI727
g1
((lp2183
I13
atp2184
Rp2185
sI728
g1
((lp2186
I1073
aI812
aI502
aI1167
atp2187
Rp2188
sI729
g1
((lp2189
I1076
aI749
aI615
atp2190
Rp2191
sI730
g1
((lp2192
I963
aI164
aI38
aI681
aI652
aI893
aI607
atp2193
Rp2194
sI731
g1
((lp2195
I476
aI879
atp2196
Rp2197
sI732
g1
((lp2198
I56
aI832
aI50
atp2199
Rp2200
sI733
g1
((lp2201
I1213
aI803
aI1028
aI253
aI303
atp2202
Rp2203
sI734
g1
((lp2204
I347
aI1036
aI285
aI783
atp2205
Rp2206
sI735
g1
((lp2207
I154
aI195
aI228
aI1211
atp2208
Rp2209
sI736
g1
((lp2210
I880
aI904
atp2211
Rp2212
sI737
g1
((lp2213
I354
aI548
aI709
aI247
aI696
aI974
atp2214
Rp2215
sI738
g1
((lp2216
I464
aI478
atp2217
Rp2218
sI739
g1
((lp2219
I1161
aI795
aI559
atp2220
Rp2221
sI740
g1
((lp2222
I345
atp2223
Rp2224
sI741
g1
((lp2225
I577
aI418
aI459
aI645
aI779
aI973
atp2226
Rp2227
sI742
g1
((lp2228
I1084
aI1053
aI990
aI711
atp2229
Rp2230
sI743
g1
((lp2231
I9
aI957
aI398
aI961
atp2232
Rp2233
sI744
g1
((lp2234
I1136
aI762
aI1103
atp2235
Rp2236
sI745
g1
((lp2237
I216
aI947
atp2238
Rp2239
sI746
g1
((lp2240
I71
atp2241
Rp2242
sI747
g1
((lp2243
I48
aI762
aI151
atp2244
Rp2245
sI748
g1
((lp2246
I203
aI1172
aI15
atp2247
Rp2248
sI749
g1
((lp2249
I880
aI729
atp2250
Rp2251
sI750
g1
((lp2252
I692
aI647
atp2253
Rp2254
sI751
g1
((lp2255
I593
aI1082
aI956
aI820
atp2256
Rp2257
sI752
g1
((lp2258
I281
aI602
aI757
atp2259
Rp2260
sI753
g1
((lp2261
I987
atp2262
Rp2263
sI754
g1
((lp2264
I152
aI297
aI100
aI829
aI726
atp2265
Rp2266
sI755
g1
((lp2267
I171
aI435
aI319
atp2268
Rp2269
sI756
g1
((lp2270
I664
atp2271
Rp2272
sI757
g1
((lp2273
I752
atp2274
Rp2275
sI758
g1
((lp2276
I208
atp2277
Rp2278
sI759
g1
((lp2279
I657
aI1028
aI289
aI1112
aI1114
aI1037
aI109
atp2280
Rp2281
sI760
g1
((lp2282
I662
atp2283
Rp2284
sI761
g1
((lp2285
I321
aI978
aI557
aI991
atp2286
Rp2287
sI762
g1
((lp2288
I16
aI744
aI747
aI444
atp2289
Rp2290
sI763
g1
((lp2291
I473
aI442
aI846
atp2292
Rp2293
sI764
g1
((lp2294
I586
aI340
atp2295
Rp2296
sI765
g1
((lp2297
I964
atp2298
Rp2299
sI766
g1
((lp2300
I277
atp2301
Rp2302
sI767
g1
((lp2303
I1181
atp2304
Rp2305
sI768
g1
((lp2306
I1146
aI91
atp2307
Rp2308
sI769
g1
((lp2309
I1106
aI283
aI999
aI518
aI987
atp2310
Rp2311
sI770
g1
((lp2312
I659
aI148
atp2313
Rp2314
sI771
g1
((lp2315
I936
aI213
atp2316
Rp2317
sI772
g1
((lp2318
I114
atp2319
Rp2320
sI773
g1
((lp2321
I81
aI1238
atp2322
Rp2323
sI774
g1
((lp2324
I208
aI782
atp2325
Rp2326
sI775
g1
((lp2327
I1073
aI873
atp2328
Rp2329
sI776
g1
((lp2330
I433
aI1238
aI502
atp2331
Rp2332
sI777
g1
((lp2333
I168
aI108
aI191
atp2334
Rp2335
sI778
g1
((lp2336
I520
atp2337
Rp2338
sI779
g1
((lp2339
I310
aI597
aI158
aI741
atp2340
Rp2341
sI780
g1
((lp2342
I332
aI281
aI316
aI279
atp2343
Rp2344
sI781
g1
((lp2345
tp2346
Rp2347
sI782
g1
((lp2348
I774
atp2349
Rp2350
sI783
g1
((lp2351
I97
aI442
aI1154
aI734
atp2352
Rp2353
sI784
g1
((lp2354
I1185
atp2355
Rp2356
sI785
g1
((lp2357
I240
aI701
aI631
atp2358
Rp2359
sI786
g1
((lp2360
I1173
aI517
aI815
atp2361
Rp2362
sI787
g1
((lp2363
I409
aI955
atp2364
Rp2365
sI788
g1
((lp2366
I25
aI1074
atp2367
Rp2368
sI789
g1
((lp2369
I97
aI523
aI1019
atp2370
Rp2371
sI790
g1
((lp2372
I242
aI590
atp2373
Rp2374
sI791
g1
((lp2375
I305
atp2376
Rp2377
sI792
g1
((lp2378
I165
aI111
atp2379
Rp2380
sI793
g1
((lp2381
I1095
aI517
aI669
atp2382
Rp2383
sI794
g1
((lp2384
I506
aI635
aI1099
atp2385
Rp2386
sI795
g1
((lp2387
I611
aI177
aI27
aI739
aI713
atp2388
Rp2389
sI796
g1
((lp2390
tp2391
Rp2392
sI797
g1
((lp2393
I651
aI117
atp2394
Rp2395
sI798
g1
((lp2396
I88
aI116
atp2397
Rp2398
sI799
g1
((lp2399
I240
aI434
aI187
aI1138
aI195
atp2400
Rp2401
sI800
g1
((lp2402
I1185
aI581
atp2403
Rp2404
sI801
g1
((lp2405
tp2406
Rp2407
sI802
g1
((lp2408
I976
aI971
atp2409
Rp2410
sI803
g1
((lp2411
I554
aI733
aI246
atp2412
Rp2413
sI804
g1
((lp2414
I156
aI68
aI342
aI6
aI481
atp2415
Rp2416
sI805
g1
((lp2417
I600
aI327
aI1020
aI605
aI69
atp2418
Rp2419
sI806
g1
((lp2420
I1090
aI979
atp2421
Rp2422
sI807
g1
((lp2423
I569
aI1234
aI1164
aI1193
atp2424
Rp2425
sI808
g1
((lp2426
I160
aI1042
aI396
aI1078
atp2427
Rp2428
sI809
g1
((lp2429
I1212
aI508
aI1037
aI1223
atp2430
Rp2431
sI810
g1
((lp2432
I1037
atp2433
Rp2434
sI811
g1
((lp2435
I371
aI630
atp2436
Rp2437
sI812
g1
((lp2438
I1092
aI39
aI728
aI204
aI238
aI1055
atp2439
Rp2440
sI813
g1
((lp2441
I970
aI846
atp2442
Rp2443
sI814
g1
((lp2444
I1148
aI1218
aI889
aI345
aI220
aI622
atp2445
Rp2446
sI815
g1
((lp2447
I1208
aI786
aI854
atp2448
Rp2449
sI816
g1
((lp2450
I533
aI982
atp2451
Rp2452
sI817
g1
((lp2453
I264
aI1139
atp2454
Rp2455
sI818
g1
((lp2456
I240
aI338
atp2457
Rp2458
sI819
g1
((lp2459
I292
atp2460
Rp2461
sI820
g1
((lp2462
I3
aI389
aI1238
aI751
atp2463
Rp2464
sI821
g1
((lp2465
I27
atp2466
Rp2467
sI822
g1
((lp2468
I675
atp2469
Rp2470
sI823
g1
((lp2471
I828
atp2472
Rp2473
sI824
g1
((lp2474
I923
atp2475
Rp2476
sI825
g1
((lp2477
I600
aI290
aI1101
aI950
atp2478
Rp2479
sI826
g1
((lp2480
I1177
aI546
atp2481
Rp2482
sI827
g1
((lp2483
I264
aI1144
aI339
aI348
atp2484
Rp2485
sI828
g1
((lp2486
I34
aI823
aI570
aI629
atp2487
Rp2488
sI829
g1
((lp2489
I754
aI891
aI1179
atp2490
Rp2491
sI830
g1
((lp2492
I1218
atp2493
Rp2494
sI831
g1
((lp2495
I474
aI1223
atp2496
Rp2497
sI832
g1
((lp2498
I732
aI402
aI484
atp2499
Rp2500
sI833
g1
((lp2501
I1222
atp2502
Rp2503
sI834
g1
((lp2504
I616
aI495
atp2505
Rp2506
sI835
g1
((lp2507
I225
atp2508
Rp2509
sI836
g1
((lp2510
I876
aI45
aI414
aI277
atp2511
Rp2512
sI837
g1
((lp2513
I944
aI948
atp2514
Rp2515
sI838
g1
((lp2516
I868
aI1141
atp2517
Rp2518
sI839
g1
((lp2519
I1093
atp2520
Rp2521
sI840
g1
((lp2522
I56
aI945
aI34
aI1074
aI890
atp2523
Rp2524
sI841
g1
((lp2525
I949
aI283
aI213
aI533
atp2526
Rp2527
sI842
g1
((lp2528
I489
aI563
atp2529
Rp2530
sI843
g1
((lp2531
I17
aI35
atp2532
Rp2533
sI844
g1
((lp2534
I520
aI1074
atp2535
Rp2536
sI845
g1
((lp2537
I362
aI971
aI1076
aI650
aI78
atp2538
Rp2539
sI846
g1
((lp2540
I164
aI665
aI763
aI1068
aI813
aI158
atp2541
Rp2542
sI847
g1
((lp2543
tp2544
Rp2545
sI848
g1
((lp2546
I179
aI388
aI79
atp2547
Rp2548
sI849
g1
((lp2549
I915
aI94
atp2550
Rp2551
sI850
g1
((lp2552
I194
aI510
atp2553
Rp2554
sI851
g1
((lp2555
I250
aI381
aI503
atp2556
Rp2557
sI852
g1
((lp2558
I193
aI306
atp2559
Rp2560
sI853
g1
((lp2561
I44
atp2562
Rp2563
sI854
g1
((lp2564
I497
aI1029
aI815
atp2565
Rp2566
sI855
g1
((lp2567
I641
aI530
aI1132
aI1199
atp2568
Rp2569
sI856
g1
((lp2570
tp2571
Rp2572
sI857
g1
((lp2573
I531
aI149
aI135
aI1065
aI1083
aI963
atp2574
Rp2575
sI858
g1
((lp2576
I56
aI57
atp2577
Rp2578
sI859
g1
((lp2579
I1154
aI708
atp2580
Rp2581
sI860
g1
((lp2582
I1153
aI970
atp2583
Rp2584
sI861
g1
((lp2585
I547
aI420
atp2586
Rp2587
sI862
g1
((lp2588
I152
aI245
aI382
aI1103
atp2589
Rp2590
sI863
g1
((lp2591
I594
aI995
aI1193
aI618
aI522
aI898
atp2592
Rp2593
sI864
g1
((lp2594
tp2595
Rp2596
sI865
g1
((lp2597
tp2598
Rp2599
sI866
g1
((lp2600
I353
aI923
aI1228
aI934
aI47
atp2601
Rp2602
sI867
g1
((lp2603
I58
aI115
atp2604
Rp2605
sI868
g1
((lp2606
I1072
aI665
aI838
aI406
aI367
atp2607
Rp2608
sI869
g1
((lp2609
I553
aI173
atp2610
Rp2611
sI870
g1
((lp2612
I328
aI202
atp2613
Rp2614
sI871
g1
((lp2615
I908
aI86
atp2616
Rp2617
sI872
g1
((lp2618
tp2619
Rp2620
sI873
g1
((lp2621
I600
aI257
aI775
aI591
atp2622
Rp2623
sI874
g1
((lp2624
I484
atp2625
Rp2626
sI875
g1
((lp2627
I298
aI540
aI317
atp2628
Rp2629
sI876
g1
((lp2630
I836
aI250
aI84
aI670
aI671
atp2631
Rp2632
sI877
g1
((lp2633
I1050
atp2634
Rp2635
sI878
g1
((lp2636
I440
aI1219
aI157
atp2637
Rp2638
sI879
g1
((lp2639
I731
aI341
atp2640
Rp2641
sI880
g1
((lp2642
I480
aI736
aI749
atp2643
Rp2644
sI881
g1
((lp2645
I209
aI636
aI958
atp2646
Rp2647
sI882
g1
((lp2648
I11
atp2649
Rp2650
sI883
g1
((lp2651
I581
atp2652
Rp2653
sI884
g1
((lp2654
tp2655
Rp2656
sI885
g1
((lp2657
I465
aI975
aI1171
aI279
atp2658
Rp2659
sI886
g1
((lp2660
tp2661
Rp2662
sI887
g1
((lp2663
I973
atp2664
Rp2665
sI888
g1
((lp2666
I24
aI1223
atp2667
Rp2668
sI889
g1
((lp2669
I970
aI814
atp2670
Rp2671
sI890
g1
((lp2672
I840
aI697
aI1090
atp2673
Rp2674
sI891
g1
((lp2675
I829
atp2676
Rp2677
sI892
g1
((lp2678
I568
aI1193
aI326
atp2679
Rp2680
sI893
g1
((lp2681
I1208
aI730
aI994
atp2682
Rp2683
sI894
g1
((lp2684
I491
aI108
aI582
aI487
atp2685
Rp2686
sI895
g1
((lp2687
I310
atp2688
Rp2689
sI896
g1
((lp2690
tp2691
Rp2692
sI897
g1
((lp2693
I1025
aI402
aI1036
aI527
atp2694
Rp2695
sI898
g1
((lp2696
I863
atp2697
Rp2698
sI899
g1
((lp2699
I497
aI436
aI487
aI552
aI458
aI1095
atp2700
Rp2701
sI900
g1
((lp2702
I1041
atp2703
Rp2704
sI901
g1
((lp2705
I144
aI217
atp2706
Rp2707
sI902
g1
((lp2708
I592
aI658
atp2709
Rp2710
sI903
g1
((lp2711
tp2712
Rp2713
sI904
g1
((lp2714
I736
aI987
atp2715
Rp2716
sI905
g1
((lp2717
I130
aI1018
atp2718
Rp2719
sI906
g1
((lp2720
I1186
aI587
aI995
atp2721
Rp2722
sI907
g1
((lp2723
I194
aI539
aI1219
atp2724
Rp2725
sI908
g1
((lp2726
I1032
aI871
atp2727
Rp2728
sI909
g1
((lp2729
I672
aI1124
aI644
aI573
atp2730
Rp2731
sI910
g1
((lp2732
I1155
aI262
atp2733
Rp2734
sI911
g1
((lp2735
I137
aI1198
aI1103
atp2736
Rp2737
sI912
g1
((lp2738
I96
aI233
aI354
aI573
atp2739
Rp2740
sI913
g1
((lp2741
I570
aI469
aI1165
atp2742
Rp2743
sI914
g1
((lp2744
I1218
atp2745
Rp2746
sI915
g1
((lp2747
I849
atp2748
Rp2749
sI916
g1
((lp2750
I1224
aI527
atp2751
Rp2752
sI917
g1
((lp2753
I130
aI317
atp2754
Rp2755
sI918
g1
((lp2756
I565
atp2757
Rp2758
sI919
g1
((lp2759
I436
atp2760
Rp2761
sI920
g1
((lp2762
I305
aI666
atp2763
Rp2764
sI921
g1
((lp2765
I1108
aI148
atp2766
Rp2767
sI922
g1
((lp2768
I712
aI1233
atp2769
Rp2770
sI923
g1
((lp2771
I824
aI866
aI116
aI333
aI367
atp2772
Rp2773
sI924
g1
((lp2774
I616
aI980
aI86
atp2775
Rp2776
sI925
g1
((lp2777
I146
aI580
aI174
atp2778
Rp2779
sI926
g1
((lp2780
I234
aI3
aI1046
aI1207
atp2781
Rp2782
sI927
g1
((lp2783
I241
aI261
aI639
atp2784
Rp2785
sI928
g1
((lp2786
I970
aI565
atp2787
Rp2788
sI929
g1
((lp2789
I941
atp2790
Rp2791
sI930
g1
((lp2792
I32
aI1031
aI5
aI327
atp2793
Rp2794
sI931
g1
((lp2795
I1171
aI948
aI358
atp2796
Rp2797
sI932
g1
((lp2798
tp2799
Rp2800
sI933
g1
((lp2801
I488
atp2802
Rp2803
sI934
g1
((lp2804
I617
aI866
aI1155
atp2805
Rp2806
sI935
g1
((lp2807
I288
aI586
aI133
aI221
atp2808
Rp2809
sI936
g1
((lp2810
I592
aI771
aI1003
atp2811
Rp2812
sI937
g1
((lp2813
I512
aI1139
aI661
aI126
aI1173
atp2814
Rp2815
sI938
g1
((lp2816
I960
aI1017
aI19
aI1212
aI445
atp2817
Rp2818
sI939
g1
((lp2819
I317
aI14
atp2820
Rp2821
sI940
g1
((lp2822
tp2823
Rp2824
sI941
g1
((lp2825
I193
aI346
aI929
atp2826
Rp2827
sI942
g1
((lp2828
I949
atp2829
Rp2830
sI943
g1
((lp2831
I64
aI689
aI962
aI694
aI42
aI463
atp2832
Rp2833
sI944
g1
((lp2834
I837
atp2835
Rp2836
sI945
g1
((lp2837
I840
aI718
atp2838
Rp2839
sI946
g1
((lp2840
I449
aI322
atp2841
Rp2842
sI947
g1
((lp2843
I377
aI20
aI745
atp2844
Rp2845
sI948
g1
((lp2846
I931
aI964
aI557
aI837
atp2847
Rp2848
sI949
g1
((lp2849
I225
aI942
aI841
atp2850
Rp2851
sI950
g1
((lp2852
I825
aI82
aI237
aI382
aI1025
atp2853
Rp2854
sI951
g1
((lp2855
tp2856
Rp2857
sI952
g1
((lp2858
I203
atp2859
Rp2860
sI953
g1
((lp2861
I464
aI529
aI308
atp2862
Rp2863
sI954
g1
((lp2864
I351
atp2865
Rp2866
sI955
g1
((lp2867
I787
aI1189
atp2868
Rp2869
sI956
g1
((lp2870
I751
atp2871
Rp2872
sI957
g1
((lp2873
I1063
aI743
atp2874
Rp2875
sI958
g1
((lp2876
I881
aI634
aI709
atp2877
Rp2878
sI959
g1
((lp2879
I219
aI564
aI414
atp2880
Rp2881
sI960
g1
((lp2882
I440
aI938
atp2883
Rp2884
sI961
g1
((lp2885
I743
aI134
aI591
atp2886
Rp2887
sI962
g1
((lp2888
I943
atp2889
Rp2890
sI963
g1
((lp2891
I857
aI730
aI387
aI1117
aI470
atp2892
Rp2893
sI964
g1
((lp2894
I1224
aI948
aI765
atp2895
Rp2896
sI965
g1
((lp2897
I554
aI650
atp2898
Rp2899
sI966
g1
((lp2900
I1229
aI374
atp2901
Rp2902
sI967
g1
((lp2903
I682
aI363
aI1045
atp2904
Rp2905
sI968
g1
((lp2906
I666
aI340
aI1050
atp2907
Rp2908
sI969
g1
((lp2909
I1022
aI710
atp2910
Rp2911
sI970
g1
((lp2912
I928
aI1075
aI1172
aI889
aI860
aI813
aI1021
atp2913
Rp2914
sI971
g1
((lp2915
I368
aI802
aI845
atp2916
Rp2917
sI972
g1
((lp2918
I153
atp2919
Rp2920
sI973
g1
((lp2921
I665
aI887
aI597
aI294
aI741
atp2922
Rp2923
sI974
g1
((lp2924
I737
atp2925
Rp2926
sI975
g1
((lp2927
I668
aI885
atp2928
Rp2929
sI976
g1
((lp2930
I802
atp2931
Rp2932
sI977
g1
((lp2933
I80
aI52
atp2934
Rp2935
sI978
g1
((lp2936
I761
aI1028
aI437
atp2937
Rp2938
sI979
g1
((lp2939
I618
aI436
aI806
aI398
atp2940
Rp2941
sI980
g1
((lp2942
I697
aI434
aI924
atp2943
Rp2944
sI981
g1
((lp2945
I185
aI266
aI1228
aI402
aI581
atp2946
Rp2947
sI982
g1
((lp2948
I816
atp2949
Rp2950
sI983
g1
((lp2951
I572
aI428
aI1134
atp2952
Rp2953
sI984
g1
((lp2954
I103
atp2955
Rp2956
sI985
g1
((lp2957
I386
aI118
atp2958
Rp2959
sI986
g1
((lp2960
I522
atp2961
Rp2962
sI987
g1
((lp2963
I1184
aI753
aI675
aI769
aI904
aI1019
atp2964
Rp2965
sI988
g1
((lp2966
I91
atp2967
Rp2968
sI989
g1
((lp2969
I236
aI701
aI527
atp2970
Rp2971
sI990
g1
((lp2972
I742
aI695
atp2973
Rp2974
sI991
g1
((lp2975
I761
aI122
atp2976
Rp2977
sI992
g1
((lp2978
tp2979
Rp2980
sI993
g1
((lp2981
I1192
aI377
aI69
atp2982
Rp2983
sI994
g1
((lp2984
I400
aI140
aI28
aI893
atp2985
Rp2986
sI995
g1
((lp2987
I906
aI91
aI589
aI863
atp2988
Rp2989
sI996
g1
((lp2990
I665
aI1157
aI1126
atp2991
Rp2992
sI997
g1
((lp2993
I540
aI263
atp2994
Rp2995
sI998
g1
((lp2996
I632
aI342
aI350
aI463
atp2997
Rp2998
sI999
g1
((lp2999
I769
aI461
aI502
atp3000
Rp3001
sI1000
g1
((lp3002
I1178
aI255
atp3003
Rp3004
sI1001
g1
((lp3005
tp3006
Rp3007
sI1002
g1
((lp3008
I682
aI349
aI694
atp3009
Rp3010
sI1003
g1
((lp3011
I936
atp3012
Rp3013
sI1004
g1
((lp3014
I170
aI94
atp3015
Rp3016
sI1005
g1
((lp3017
I374
atp3018
Rp3019
sI1006
g1
((lp3020
tp3021
Rp3022
sI1007
g1
((lp3023
I50
aI671
atp3024
Rp3025
sI1008
g1
((lp3026
I402
aI667
atp3027
Rp3028
sI1009
g1
((lp3029
I106
aI535
atp3030
Rp3031
sI1010
g1
((lp3032
I1100
aI133
atp3033
Rp3034
sI1011
g1
((lp3035
I458
atp3036
Rp3037
sI1012
g1
((lp3038
I1187
aI343
atp3039
Rp3040
sI1013
g1
((lp3041
I689
aI211
atp3042
Rp3043
sI1014
g1
((lp3044
I1059
aI35
atp3045
Rp3046
sI1015
g1
((lp3047
I1094
atp3048
Rp3049
sI1016
g1
((lp3050
I410
atp3051
Rp3052
sI1017
g1
((lp3053
I938
aI618
atp3054
Rp3055
sI1018
g1
((lp3056
I905
aI367
atp3057
Rp3058
sI1019
g1
((lp3059
I1121
aI469
aI88
aI1082
aI987
aI398
aI789
atp3060
Rp3061
sI1020
g1
((lp3062
I1072
aI265
aI805
atp3063
Rp3064
sI1021
g1
((lp3065
I970
atp3066
Rp3067
sI1022
g1
((lp3068
I1169
aI1090
aI371
aI292
aI969
aI507
atp3069
Rp3070
sI1023
g1
((lp3071
I1030
aI1206
aI191
atp3072
Rp3073
sI1024
g1
((lp3074
I321
atp3075
Rp3076
sI1025
g1
((lp3077
I897
aI155
aI510
aI950
aI599
atp3078
Rp3079
sI1026
g1
((lp3080
I121
aI1171
atp3081
Rp3082
sI1027
g1
((lp3083
I65
aI542
atp3084
Rp3085
sI1028
g1
((lp3086
I978
aI100
aI759
aI1133
aI1230
aI733
atp3087
Rp3088
sI1029
g1
((lp3089
I448
aI1192
aI854
aI543
atp3090
Rp3091
sI1030
g1
((lp3092
I608
aI52
aI1023
atp3093
Rp3094
sI1031
g1
((lp3095
I930
atp3096
Rp3097
sI1032
g1
((lp3098
I908
atp3099
Rp3100
sI1033
g1
((lp3101
I1225
atp3102
Rp3103
sI1034
g1
((lp3104
I1135
atp3105
Rp3106
sI1035
g1
((lp3107
I354
atp3108
Rp3109
sI1036
g1
((lp3110
I897
aI734
aI167
atp3111
Rp3112
sI1037
g1
((lp3113
I809
aI810
aI357
aI213
aI759
atp3114
Rp3115
sI1038
g1
((lp3116
tp3117
Rp3118
sI1039
g1
((lp3119
tp3120
Rp3121
sI1040
g1
((lp3122
I357
aI638
atp3123
Rp3124
sI1041
g1
((lp3125
I465
aI900
aI254
aI569
atp3126
Rp3127
sI1042
g1
((lp3128
I808
aI480
aI14
aI513
atp3129
Rp3130
sI1043
g1
((lp3131
I432
aI609
atp3132
Rp3133
sI1044
g1
((lp3134
I1050
aI1215
atp3135
Rp3136
sI1045
g1
((lp3137
I128
aI306
aI43
aI967
atp3138
Rp3139
sI1046
g1
((lp3140
I539
aI1093
aI926
atp3141
Rp3142
sI1047
g1
((lp3143
I1187
aI1156
atp3144
Rp3145
sI1048
g1
((lp3146
I578
aI158
atp3147
Rp3148
sI1049
g1
((lp3149
I325
atp3150
Rp3151
sI1050
g1
((lp3152
I968
aI1044
aI333
aI877
atp3153
Rp3154
sI1051
g1
((lp3155
tp3156
Rp3157
sI1052
g1
((lp3158
I705
aI71
aI1223
aI156
aI494
aI703
atp3159
Rp3160
sI1053
g1
((lp3161
I742
aI649
aI26
aI1226
aI334
aI1151
atp3162
Rp3163
sI1054
g1
((lp3164
I100
atp3165
Rp3166
sI1055
g1
((lp3167
I257
aI706
aI678
aI298
aI59
aI812
atp3168
Rp3169
sI1056
g1
((lp3170
I114
aI509
atp3171
Rp3172
sI1057
g1
((lp3173
I506
aI627
atp3174
Rp3175
sI1058
g1
((lp3176
I690
aI165
atp3177
Rp3178
sI1059
g1
((lp3179
I4
aI477
aI1014
atp3180
Rp3181
sI1060
g1
((lp3182
I389
aI229
aI685
atp3183
Rp3184
sI1061
g1
((lp3185
tp3186
Rp3187
sI1062
g1
((lp3188
I268
atp3189
Rp3190
sI1063
g1
((lp3191
I696
aI289
aI419
aI676
aI957
atp3192
Rp3193
sI1064
g1
((lp3194
I1124
aI52
aI367
atp3195
Rp3196
sI1065
g1
((lp3197
I857
atp3198
Rp3199
sI1066
g1
((lp3200
I161
atp3201
Rp3202
sI1067
g1
((lp3203
I88
atp3204
Rp3205
sI1068
g1
((lp3206
I579
aI1220
aI846
atp3207
Rp3208
sI1069
g1
((lp3209
tp3210
Rp3211
sI1070
g1
((lp3212
I1113
aI331
atp3213
Rp3214
sI1071
g1
((lp3215
I2
aI278
atp3216
Rp3217
sI1072
g1
((lp3218
I1020
aI1083
aI868
aI159
atp3219
Rp3220
sI1073
g1
((lp3221
I728
aI775
atp3222
Rp3223
sI1074
g1
((lp3224
I840
aI844
aI788
aI1140
atp3225
Rp3226
sI1075
g1
((lp3227
I970
aI1091
aI1159
atp3228
Rp3229
sI1076
g1
((lp3230
I224
aI729
aI845
aI1193
atp3231
Rp3232
sI1077
g1
((lp3233
I106
aI274
aI1158
atp3234
Rp3235
sI1078
g1
((lp3236
I808
aI581
aI701
atp3237
Rp3238
sI1079
g1
((lp3239
I1112
aI1157
atp3240
Rp3241
sI1080
g1
((lp3242
I544
atp3243
Rp3244
sI1081
g1
((lp3245
I11
aI532
aI381
atp3246
Rp3247
sI1082
g1
((lp3248
I496
aI292
aI517
aI1019
aI540
aI1133
aI751
atp3249
Rp3250
sI1083
g1
((lp3251
I576
aI1072
aI322
aI723
aI39
aI857
aI1217
atp3252
Rp3253
sI1084
g1
((lp3254
I186
aI742
atp3255
Rp3256
sI1085
g1
((lp3257
tp3258
Rp3259
sI1086
g1
((lp3260
I450
aI357
atp3261
Rp3262
sI1087
g1
((lp3263
I1092
aI565
atp3264
Rp3265
sI1088
g1
((lp3266
I309
atp3267
Rp3268
sI1089
g1
((lp3269
I412
atp3270
Rp3271
sI1090
g1
((lp3272
I65
aI890
aI806
aI1022
atp3273
Rp3274
sI1091
g1
((lp3275
I1075
aI1230
atp3276
Rp3277
sI1092
g1
((lp3278
I812
aI1087
atp3279
Rp3280
sI1093
g1
((lp3281
I1046
aI839
atp3282
Rp3283
sI1094
g1
((lp3284
I1156
aI1182
aI1015
atp3285
Rp3286
sI1095
g1
((lp3287
I899
aI693
aI262
aI793
aI397
aI1141
atp3288
Rp3289
sI1096
g1
((lp3290
I1176
atp3291
Rp3292
sI1097
g1
((lp3293
I513
aI340
atp3294
Rp3295
sI1098
g1
((lp3296
I245
atp3297
Rp3298
sI1099
g1
((lp3299
I794
aI485
aI1186
atp3300
Rp3301
sI1100
g1
((lp3302
I1010
aI298
aI590
aI165
aI230
atp3303
Rp3304
sI1101
g1
((lp3305
I825
aI249
atp3306
Rp3307
sI1102
g1
((lp3308
I169
aI382
atp3309
Rp3310
sI1103
g1
((lp3311
I1158
aI135
aI744
aI1127
aI911
aI862
aI511
atp3312
Rp3313
sI1104
g1
((lp3314
I609
atp3315
Rp3316
sI1105
g1
((lp3317
tp3318
Rp3319
sI1106
g1
((lp3320
I193
aI190
aI769
atp3321
Rp3322
sI1107
g1
((lp3323
I652
aI413
aI1237
atp3324
Rp3325
sI1108
g1
((lp3326
I633
aI226
aI299
aI332
aI921
atp3327
Rp3328
sI1109
g1
((lp3329
tp3330
Rp3331
sI1110
g1
((lp3332
I219
aI31
atp3333
Rp3334
sI1111
g1
((lp3335
I221
aI693
aI534
aI109
atp3336
Rp3337
sI1112
g1
((lp3338
I50
aI759
aI434
aI1079
atp3339
Rp3340
sI1113
g1
((lp3341
I724
aI1070
aI687
atp3342
Rp3343
sI1114
g1
((lp3344
I56
aI2
aI581
aI759
atp3345
Rp3346
sI1115
g1
((lp3347
I260
atp3348
Rp3349
sI1116
g1
((lp3350
I1185
aI639
atp3351
Rp3352
sI1117
g1
((lp3353
I963
aI397
aI318
atp3354
Rp3355
sI1118
g1
((lp3356
I157
aI1142
aI199
atp3357
Rp3358
sI1119
g1
((lp3359
I1150
aI575
atp3360
Rp3361
sI1120
g1
((lp3362
I547
aI179
aI37
aI638
atp3363
Rp3364
sI1121
g1
((lp3365
I115
aI1019
atp3366
Rp3367
sI1122
g1
((lp3368
tp3369
Rp3370
sI1123
g1
((lp3371
I48
atp3372
Rp3373
sI1124
g1
((lp3374
I584
aI1064
aI909
atp3375
Rp3376
sI1125
g1
((lp3377
I433
atp3378
Rp3379
sI1126
g1
((lp3380
I1161
aI691
aI996
aI439
atp3381
Rp3382
sI1127
g1
((lp3383
I1103
atp3384
Rp3385
sI1128
g1
((lp3386
I309
aI526
atp3387
Rp3388
sI1129
g1
((lp3389
I686
aI606
atp3390
Rp3391
sI1130
g1
((lp3392
tp3393
Rp3394
sI1131
g1
((lp3395
tp3396
Rp3397
sI1132
g1
((lp3398
I535
aI190
aI855
atp3399
Rp3400
sI1133
g1
((lp3401
I1082
aI1028
aI29
aI1207
atp3402
Rp3403
sI1134
g1
((lp3404
I428
aI580
aI254
aI983
atp3405
Rp3406
sI1135
g1
((lp3407
I704
aI361
aI1034
aI372
atp3408
Rp3409
sI1136
g1
((lp3410
I744
aI530
aI151
atp3411
Rp3412
sI1137
g1
((lp3413
I113
aI215
atp3414
Rp3415
sI1138
g1
((lp3416
I304
aI799
atp3417
Rp3418
sI1139
g1
((lp3419
I817
aI277
aI937
atp3420
Rp3421
sI1140
g1
((lp3422
I1074
aI166
aI77
aI654
aI678
atp3423
Rp3424
sI1141
g1
((lp3425
I49
aI838
aI1095
atp3426
Rp3427
sI1142
g1
((lp3428
I1118
aI359
atp3429
Rp3430
sI1143
g1
((lp3431
I21
aI215
atp3432
Rp3433
sI1144
g1
((lp3434
I282
aI827
aI396
atp3435
Rp3436
sI1145
g1
((lp3437
I262
aI631
atp3438
Rp3439
sI1146
g1
((lp3440
I768
aI217
atp3441
Rp3442
sI1147
g1
((lp3443
I105
aI519
atp3444
Rp3445
sI1148
g1
((lp3446
I3
aI814
atp3447
Rp3448
sI1149
g1
((lp3449
I207
atp3450
Rp3451
sI1150
g1
((lp3452
I577
aI1119
aI423
aI301
aI373
atp3453
Rp3454
sI1151
g1
((lp3455
I248
aI1053
atp3456
Rp3457
sI1152
g1
((lp3458
tp3459
Rp3460
sI1153
g1
((lp3461
I323
aI860
atp3462
Rp3463
sI1154
g1
((lp3464
I17
aI859
aI783
aI337
atp3465
Rp3466
sI1155
g1
((lp3467
I910
aI934
atp3468
Rp3469
sI1156
g1
((lp3470
I1094
aI1047
atp3471
Rp3472
sI1157
g1
((lp3473
I1079
aI996
aI191
atp3474
Rp3475
sI1158
g1
((lp3476
I181
aI1077
aI1103
atp3477
Rp3478
sI1159
g1
((lp3479
I1075
atp3480
Rp3481
sI1160
g1
((lp3482
I678
aI102
aI503
atp3483
Rp3484
sI1161
g1
((lp3485
I739
aI292
aI1126
atp3486
Rp3487
sI1162
g1
((lp3488
tp3489
Rp3490
sI1163
g1
((lp3491
I489
atp3492
Rp3493
sI1164
g1
((lp3494
I1179
aI807
atp3495
Rp3496
sI1165
g1
((lp3497
I913
aI602
aI303
atp3498
Rp3499
sI1166
g1
((lp3500
I504
atp3501
Rp3502
sI1167
g1
((lp3503
I728
aI252
aI677
atp3504
Rp3505
sI1168
g1
((lp3506
tp3507
Rp3508
sI1169
g1
((lp3509
I496
aI1022
atp3510
Rp3511
sI1170
g1
((lp3512
I375
aI617
aI147
aI71
atp3513
Rp3514
sI1171
g1
((lp3515
I931
aI1026
aI131
aI580
aI885
atp3516
Rp3517
sI1172
g1
((lp3518
I970
aI748
atp3519
Rp3520
sI1173
g1
((lp3521
I937
aI194
aI786
atp3522
Rp3523
sI1174
g1
((lp3524
I168
aI628
aI111
atp3525
Rp3526
sI1175
g1
((lp3527
I380
aI13
atp3528
Rp3529
sI1176
g1
((lp3530
I1096
aI673
aI275
atp3531
Rp3532
sI1177
g1
((lp3533
I121
aI826
aI195
atp3534
Rp3535
sI1178
g1
((lp3536
I1000
aI681
aI26
atp3537
Rp3538
sI1179
g1
((lp3539
I595
aI1204
aI636
aI1164
aI829
aI143
atp3540
Rp3541
sI1180
g1
((lp3542
tp3543
Rp3544
sI1181
g1
((lp3545
I274
aI767
atp3546
Rp3547
sI1182
g1
((lp3548
I259
aI1094
aI702
atp3549
Rp3550
sI1183
g1
((lp3551
I1186
aI483
aI607
atp3552
Rp3553
sI1184
g1
((lp3554
I74
aI987
atp3555
Rp3556
sI1185
g1
((lp3557
I784
aI800
aI1215
aI1116
aI71
atp3558
Rp3559
sI1186
g1
((lp3560
I59
aI906
aI1099
aI428
aI1183
atp3561
Rp3562
sI1187
g1
((lp3563
I440
aI370
aI307
aI1012
aI1047
atp3564
Rp3565
sI1188
g1
((lp3566
I225
aI538
aI518
atp3567
Rp3568
sI1189
g1
((lp3569
I457
aI955
aI97
atp3570
Rp3571
sI1190
g1
((lp3572
I546
aI103
atp3573
Rp3574
sI1191
g1
((lp3575
I378
atp3576
Rp3577
sI1192
g1
((lp3578
I216
aI993
aI317
aI1029
atp3579
Rp3580
sI1193
g1
((lp3581
I1076
aI863
aI892
aI254
aI807
atp3582
Rp3583
sI1194
g1
((lp3584
tp3585
Rp3586
sI1195
g1
((lp3587
I379
aI265
aI219
aI142
atp3588
Rp3589
sI1196
g1
((lp3590
I1208
aI530
atp3591
Rp3592
sI1197
g1
((lp3593
tp3594
Rp3595
sI1198
g1
((lp3596
I911
aI39
atp3597
Rp3598
sI1199
g1
((lp3599
I855
atp3600
Rp3601
sI1200
g1
((lp3602
tp3603
Rp3604
sI1201
g1
((lp3605
tp3606
Rp3607
sI1202
g1
((lp3608
tp3609
Rp3610
sI1203
g1
((lp3611
I247
atp3612
Rp3613
sI1204
g1
((lp3614
I1179
atp3615
Rp3616
sI1205
g1
((lp3617
I153
atp3618
Rp3619
sI1206
g1
((lp3620
I88
aI1023
atp3621
Rp3622
sI1207
g1
((lp3623
I1133
aI926
atp3624
Rp3625
sI1208
g1
((lp3626
I544
aI547
aI893
aI282
aI815
aI1196
aI493
aI431
atp3627
Rp3628
sI1209
g1
((lp3629
I43
aI327
atp3630
Rp3631
sI1210
g1
((lp3632
I525
atp3633
Rp3634
sI1211
g1
((lp3635
I735
atp3636
Rp3637
sI1212
g1
((lp3638
I809
aI938
aI317
atp3639
Rp3640
sI1213
g1
((lp3641
I315
aI733
aI109
atp3642
Rp3643
sI1214
g1
((lp3644
I39
atp3645
Rp3646
sI1215
g1
((lp3647
I1044
aI714
aI396
aI1185
aI647
atp3648
Rp3649
sI1216
g1
((lp3650
tp3651
Rp3652
sI1217
g1
((lp3653
I1083
aI691
aI638
atp3654
Rp3655
sI1218
g1
((lp3656
I217
aI914
aI830
aI814
atp3657
Rp3658
sI1219
g1
((lp3659
I107
aI907
aI878
atp3660
Rp3661
sI1220
g1
((lp3662
I1068
atp3663
Rp3664
sI1221
g1
((lp3665
tp3666
Rp3667
sI1222
g1
((lp3668
I473
aI833
atp3669
Rp3670
sI1223
g1
((lp3671
I888
aI131
aI72
aI809
aI1052
aI831
atp3672
Rp3673
sI1224
g1
((lp3674
I964
aI370
aI916
aI575
atp3675
Rp3676
sI1225
g1
((lp3677
I201
aI1033
aI519
atp3678
Rp3679
sI1226
g1
((lp3680
I639
aI1053
aI181
aI95
atp3681
Rp3682
sI1227
g1
((lp3683
I93
atp3684
Rp3685
sI1228
g1
((lp3686
I866
aI35
aI981
atp3687
Rp3688
sI1229
g1
((lp3689
I966
atp3690
Rp3691
sI1230
g1
((lp3692
I1091
aI1028
atp3693
Rp3694
sI1231
g1
((lp3695
I83
aI12
atp3696
Rp3697
sI1232
g1
((lp3698
I665
atp3699
Rp3700
sI1233
g1
((lp3701
I922
aI382
atp3702
Rp3703
sI1234
g1
((lp3704
I32
aI807
atp3705
Rp3706
sI1235
g1
((lp3707
I4
aI173
aI687
atp3708
Rp3709
sI1236
g1
((lp3710
I102
atp3711
Rp3712
sI1237
g1
((lp3713
I1107
aI694
atp3714
Rp3715
sI1238
g1
((lp3716
I776
aI820
aI773
atp3717
Rp3718
s.