(dp0
I0
c__builtin__
set
p1
((lp2
I584
aI49
aI511
atp3
Rp4
sI1
g1
((lp5
I1082
atp6
Rp7
sI2
g1
((lp8
I524
aI765
atp9
Rp10
sI3
g1
((lp11
I416
aI956
atp12
Rp13
sI4
g1
((lp14
I808
aI139
atp15
Rp16
sI5
g1
((lp17
I802
aI299
aI270
atp18
Rp19
sI6
g1
((lp20
I238
atp21
Rp22
sI7
g1
((lp23
I1003
aI1189
atp24
Rp25
sI8
g1
((lp26
I263
aI847
aI437
aI879
atp27
Rp28
sI9
g1
((lp29
I1048
aI1218
atp30
Rp31
sI10
g1
((lp32
I480
aI1224
aI1146
aI151
atp33
Rp34
sI11
g1
((lp35
I281
aI885
atp36
Rp37
sI12
g1
((lp38
I698
aI548
aI734
atp39
Rp40
sI13
g1
((lp41
I32
aI866
atp42
Rp43
sI14
g1
((lp44
I1152
atp45
Rp46
sI15
g1
((lp47
I544
aI904
aI48
aI678
aI1111
atp48
Rp49
sI16
g1
((lp50
I297
atp51
Rp52
sI17
g1
((lp53
tp54
Rp55
sI18
g1
((lp56
I481
aI759
atp57
Rp58
sI19
g1
((lp59
I850
aI582
atp60
Rp61
sI20
g1
((lp62
I760
atp63
Rp64
sI21
g1
((lp65
I985
aI445
atp66
Rp67
sI22
g1
((lp68
I346
aI493
atp69
Rp70
sI23
g1
((lp71
I311
atp72
Rp73
sI24
g1
((lp74
I1033
atp75
Rp76
sI25
g1
((lp77
I397
atp78
Rp79
sI26
g1
((lp80
I1104
aI103
atp81
Rp82
sI27
g1
((lp83
tp84
Rp85
sI28
g1
((lp86
I134
aI446
aI437
atp87
Rp88
sI29
g1
((lp89
I608
aI98
aI307
aI999
atp90
Rp91
sI30
g1
((lp92
I1177
aI570
aI741
aI798
atp93
Rp94
sI31
g1
((lp95
I548
atp96
Rp97
sI32
g1
((lp98
I473
aI36
aI13
atp99
Rp100
sI33
g1
((lp101
I1131
aI815
atp102
Rp103
sI34
g1
((lp104
tp105
Rp106
sI35
g1
((lp107
I716
aI514
aI1139
aI228
atp108
Rp109
sI36
g1
((lp110
I32
aI363
aI412
atp111
Rp112
sI37
g1
((lp113
I409
aI427
aI676
aI612
aI511
atp114
Rp115
sI38
g1
((lp116
I273
aI361
atp117
Rp118
sI39
g1
((lp119
I917
aI479
atp120
Rp121
sI40
g1
((lp122
I317
aI822
atp123
Rp124
sI41
g1
((lp125
I920
aI357
atp126
Rp127
sI42
g1
((lp128
I218
aI579
aI1108
aI766
atp129
Rp130
sI43
g1
((lp131
I722
aI246
atp132
Rp133
sI44
g1
((lp134
I338
aI859
aI276
aI1223
atp135
Rp136
sI45
g1
((lp137
I770
aI822
atp138
Rp139
sI46
g1
((lp140
I347
aI1053
aI1199
atp141
Rp142
sI47
g1
((lp143
I162
aI987
atp144
Rp145
sI48
g1
((lp146
I352
aI594
aI188
aI1222
aI15
atp147
Rp148
sI49
g1
((lp149
I0
aI1152
aI474
atp150
Rp151
sI50
g1
((lp152
I849
aI986
aI799
atp153
Rp154
sI51
g1
((lp155
I744
atp156
Rp157
sI52
g1
((lp158
I946
aI515
aI596
aI142
atp159
Rp160
sI53
g1
((lp161
I848
aI913
aI945
atp162
Rp163
sI54
g1
((lp164
I1040
aI147
aI245
aI182
atp165
Rp166
sI55
g1
((lp167
I839
atp168
Rp169
sI56
g1
((lp170
I660
atp171
Rp172
sI57
g1
((lp173
I360
aI863
atp174
Rp175
sI58
g1
((lp176
I1063
atp177
Rp178
sI59
g1
((lp179
I881
aI349
aI975
atp180
Rp181
sI60
g1
((lp182
I1170
aI427
atp183
Rp184
sI61
g1
((lp185
I1064
atp186
Rp187
sI62
g1
((lp188
I388
atp189
Rp190
sI63
g1
((lp191
I929
atp192
Rp193
sI64
g1
((lp194
I514
aI603
aI943
atp195
Rp196
sI65
g1
((lp197
I424
aI509
atp198
Rp199
sI66
g1
((lp200
tp201
Rp202
sI67
g1
((lp203
I314
aI230
aI750
atp204
Rp205
sI68
g1
((lp206
tp207
Rp208
sI69
g1
((lp209
I752
aI1096
aI885
aI713
atp210
Rp211
sI70
g1
((lp212
tp213
Rp214
sI71
g1
((lp215
tp216
Rp217
sI72
g1
((lp218
I417
aI429
aI935
atp219
Rp220
sI73
g1
((lp221
I928
aI921
aI107
aI716
aI1145
atp222
Rp223
sI74
g1
((lp224
tp225
Rp226
sI75
g1
((lp227
tp228
Rp229
sI76
g1
((lp230
I564
aI588
aI1215
atp231
Rp232
sI77
g1
((lp233
I539
aI709
aI182
atp234
Rp235
sI78
g1
((lp236
tp237
Rp238
sI79
g1
((lp239
I1088
aI1184
aI178
atp240
Rp241
sI80
g1
((lp242
I368
aI182
atp243
Rp244
sI81
g1
((lp245
tp246
Rp247
sI82
g1
((lp248
I904
aI106
aI831
aI855
atp249
Rp250
sI83
g1
((lp251
I535
aI1037
aI1222
aI927
atp252
Rp253
sI84
g1
((lp254
tp255
Rp256
sI85
g1
((lp257
I921
aI874
aI1060
aI118
atp258
Rp259
sI86
g1
((lp260
I719
atp261
Rp262
sI87
g1
((lp263
I832
aI464
aI507
aI166
atp264
Rp265
sI88
g1
((lp266
I1015
aI1031
atp267
Rp268
sI89
g1
((lp269
I760
atp270
Rp271
sI90
g1
((lp272
I474
aI287
aI877
aI647
atp273
Rp274
sI91
g1
((lp275
tp276
Rp277
sI92
g1
((lp278
I196
aI1109
aI271
atp279
Rp280
sI93
g1
((lp281
I697
aI1059
aI261
aI727
atp282
Rp283
sI94
g1
((lp284
I281
aI851
aI182
atp285
Rp286
sI95
g1
((lp287
I105
aI1035
atp288
Rp289
sI96
g1
((lp290
I742
atp291
Rp292
sI97
g1
((lp293
I99
aI484
aI751
atp294
Rp295
sI98
g1
((lp296
I1042
aI29
atp297
Rp298
sI99
g1
((lp299
I97
aI692
aI462
atp300
Rp301
sI100
g1
((lp302
I224
aI468
atp303
Rp304
sI101
g1
((lp305
I1099
atp306
Rp307
sI102
g1
((lp308
I539
atp309
Rp310
sI103
g1
((lp311
I26
atp312
Rp313
sI104
g1
((lp314
I324
atp315
Rp316
sI105
g1
((lp317
I701
aI95
atp318
Rp319
sI106
g1
((lp320
I82
aI788
aI1182
atp321
Rp322
sI107
g1
((lp323
I73
aI773
atp324
Rp325
sI108
g1
((lp326
tp327
Rp328
sI109
g1
((lp329
I440
atp330
Rp331
sI110
g1
((lp332
I915
atp333
Rp334
sI111
g1
((lp335
I721
aI475
atp336
Rp337
sI112
g1
((lp338
I1208
aI1146
aI307
aI378
atp339
Rp340
sI113
g1
((lp341
I241
atp342
Rp343
sI114
g1
((lp344
I1065
aI917
atp345
Rp346
sI115
g1
((lp347
I1122
aI589
aI1031
atp348
Rp349
sI116
g1
((lp350
I1122
aI950
atp351
Rp352
sI117
g1
((lp353
I617
aI1223
atp354
Rp355
sI118
g1
((lp356
I1056
aI676
aI636
aI85
atp357
Rp358
sI119
g1
((lp359
I783
aI175
atp360
Rp361
sI120
g1
((lp362
I883
atp363
Rp364
sI121
g1
((lp365
I304
aI1230
atp366
Rp367
sI122
g1
((lp368
I199
aI874
aI364
aI657
aI1175
aI991
atp369
Rp370
sI123
g1
((lp371
I568
aI634
aI406
atp372
Rp373
sI124
g1
((lp374
I490
atp375
Rp376
sI125
g1
((lp377
I301
atp378
Rp379
sI126
g1
((lp380
I1105
atp381
Rp382
sI127
g1
((lp383
I1016
aI226
aI890
atp384
Rp385
sI128
g1
((lp386
I1158
aI663
atp387
Rp388
sI129
g1
((lp389
I1026
atp390
Rp391
sI130
g1
((lp392
I245
atp393
Rp394
sI131
g1
((lp395
I967
atp396
Rp397
sI132
g1
((lp398
I683
aI133
atp399
Rp400
sI133
g1
((lp401
I393
aI132
aI517
atp402
Rp403
sI134
g1
((lp404
I368
aI28
aI189
aI286
aI1079
atp405
Rp406
sI135
g1
((lp407
I874
atp408
Rp409
sI136
g1
((lp410
I754
atp411
Rp412
sI137
g1
((lp413
I362
aI231
atp414
Rp415
sI138
g1
((lp416
I952
aI188
aI1015
atp417
Rp418
sI139
g1
((lp419
I4
aI1190
aI1194
aI174
aI794
aI959
atp420
Rp421
sI140
g1
((lp422
tp423
Rp424
sI141
g1
((lp425
I705
aI314
aI634
aI537
atp426
Rp427
sI142
g1
((lp428
I52
atp429
Rp430
sI143
g1
((lp431
I1128
aI627
aI227
atp432
Rp433
sI144
g1
((lp434
I520
aI745
aI1047
atp435
Rp436
sI145
g1
((lp437
I920
aI1112
aI498
aI516
aI1170
atp438
Rp439
sI146
g1
((lp440
I306
aI679
atp441
Rp442
sI147
g1
((lp443
I1195
aI1076
aI54
atp444
Rp445
sI148
g1
((lp446
I829
aI430
aI935
atp447
Rp448
sI149
g1
((lp449
I1040
aI1075
atp450
Rp451
sI150
g1
((lp452
I420
aI931
aI284
aI1237
aI291
atp453
Rp454
sI151
g1
((lp455
I632
aI10
aI1179
atp456
Rp457
sI152
g1
((lp458
I414
atp459
Rp460
sI153
g1
((lp461
I733
atp462
Rp463
sI154
g1
((lp464
I970
aI1004
atp465
Rp466
sI155
g1
((lp467
I618
atp468
Rp469
sI156
g1
((lp470
I224
aI377
aI620
atp471
Rp472
sI157
g1
((lp473
I418
aI333
atp474
Rp475
sI158
g1
((lp476
I1219
aI830
atp477
Rp478
sI159
g1
((lp479
I208
aI419
atp480
Rp481
sI160
g1
((lp482
I634
aI172
aI1119
atp483
Rp484
sI161
g1
((lp485
I718
atp486
Rp487
sI162
g1
((lp488
I979
aI47
atp489
Rp490
sI163
g1
((lp491
I888
aI1089
atp492
Rp493
sI164
g1
((lp494
I708
atp495
Rp496
sI165
g1
((lp497
I822
atp498
Rp499
sI166
g1
((lp500
I87
atp501
Rp502
sI167
g1
((lp503
I1210
aI1222
atp504
Rp505
sI168
g1
((lp506
I538
aI891
atp507
Rp508
sI169
g1
((lp509
I403
aI1094
atp510
Rp511
sI170
g1
((lp512
I386
atp513
Rp514
sI171
g1
((lp515
I864
aI552
aI925
atp516
Rp517
sI172
g1
((lp518
I160
aI943
atp519
Rp520
sI173
g1
((lp521
I771
atp522
Rp523
sI174
g1
((lp524
I873
aI139
aI1205
atp525
Rp526
sI175
g1
((lp527
I1120
aI1034
aI119
atp528
Rp529
sI176
g1
((lp530
I218
aI1194
aI1023
atp531
Rp532
sI177
g1
((lp533
I767
atp534
Rp535
sI178
g1
((lp536
I528
aI1193
aI474
aI79
aI1167
atp537
Rp538
sI179
g1
((lp539
I1065
aI524
aI599
atp540
Rp541
sI180
g1
((lp542
I205
atp543
Rp544
sI181
g1
((lp545
I975
atp546
Rp547
sI182
g1
((lp548
I80
aI54
aI77
aI94
aI1231
atp549
Rp550
sI183
g1
((lp551
I772
aI567
atp552
Rp553
sI184
g1
((lp554
I394
aI1021
aI670
atp555
Rp556
sI185
g1
((lp557
tp558
Rp559
sI186
g1
((lp560
tp561
Rp562
sI187
g1
((lp563
I224
aI1002
aI460
atp564
Rp565
sI188
g1
((lp566
I48
aI617
aI138
atp567
Rp568
sI189
g1
((lp569
I134
aI598
atp570
Rp571
sI190
g1
((lp572
I346
aI455
atp573
Rp574
sI191
g1
((lp575
I1232
aI741
aI301
atp576
Rp577
sI192
g1
((lp578
tp579
Rp580
sI193
g1
((lp581
I754
atp582
Rp583
sI194
g1
((lp584
tp585
Rp586
sI195
g1
((lp587
I1146
aI486
aI1215
atp588
Rp589
sI196
g1
((lp590
I410
aI92
atp591
Rp592
sI197
g1
((lp593
I756
aI342
aI262
atp594
Rp595
sI198
g1
((lp596
I469
aI1223
atp597
Rp598
sI199
g1
((lp599
I521
aI122
aI743
atp600
Rp601
sI200
g1
((lp602
tp603
Rp604
sI201
g1
((lp605
I892
aI669
aI310
atp606
Rp607
sI202
g1
((lp608
tp609
Rp610
sI203
g1
((lp611
I377
aI620
aI1045
aI455
atp612
Rp613
sI204
g1
((lp614
I384
aI361
atp615
Rp616
sI205
g1
((lp617
I864
aI570
aI371
aI180
atp618
Rp619
sI206
g1
((lp620
tp621
Rp622
sI207
g1
((lp623
I897
aI1003
aI785
aI212
aI917
aI375
atp624
Rp625
sI208
g1
((lp626
I1153
aI602
aI159
aI540
aI735
atp627
Rp628
sI209
g1
((lp629
I496
atp630
Rp631
sI210
g1
((lp632
I859
atp633
Rp634
sI211
g1
((lp635
I985
atp636
Rp637
sI212
g1
((lp638
I274
aI1117
aI406
aI207
atp639
Rp640
sI213
g1
((lp641
I625
aI611
aI244
aI253
atp642
Rp643
sI214
g1
((lp644
I1040
atp645
Rp646
sI215
g1
((lp647
tp648
Rp649
sI216
g1
((lp650
I815
aI1047
atp651
Rp652
sI217
g1
((lp653
I241
aI468
atp654
Rp655
sI218
g1
((lp656
I176
aI1208
aI42
atp657
Rp658
sI219
g1
((lp659
I840
aI1081
aI413
atp660
Rp661
sI220
g1
((lp662
tp663
Rp664
sI221
g1
((lp665
I777
aI1077
aI638
atp666
Rp667
sI222
g1
((lp668
I630
atp669
Rp670
sI223
g1
((lp671
I1010
atp672
Rp673
sI224
g1
((lp674
I100
aI187
aI156
aI793
atp675
Rp676
sI225
g1
((lp677
I842
aI475
aI789
atp678
Rp679
sI226
g1
((lp680
I968
aI127
aI1167
atp681
Rp682
sI227
g1
((lp683
I826
aI143
atp684
Rp685
sI228
g1
((lp686
I35
aI988
atp687
Rp688
sI229
g1
((lp689
I232
aI296
aI1214
atp690
Rp691
sI230
g1
((lp692
I945
aI67
aI382
aI747
atp693
Rp694
sI231
g1
((lp695
I137
aI859
aI799
atp696
Rp697
sI232
g1
((lp698
I229
atp699
Rp700
sI233
g1
((lp701
I678
atp702
Rp703
sI234
g1
((lp704
I857
aI253
atp705
Rp706
sI235
g1
((lp707
I1043
atp708
Rp709
sI236
g1
((lp710
I755
aI614
aI630
atp711
Rp712
sI237
g1
((lp713
I1169
aI1036
aI334
atp714
Rp715
sI238
g1
((lp716
I330
aI6
aI311
atp717
Rp718
sI239
g1
((lp719
I710
aI917
aI1190
aI1149
atp720
Rp721
sI240
g1
((lp722
I1017
aI1166
atp723
Rp724
sI241
g1
((lp725
I113
aI1086
aI217
atp726
Rp727
sI242
g1
((lp728
I297
aI542
atp729
Rp730
sI243
g1
((lp731
I1204
aI325
atp732
Rp733
sI244
g1
((lp734
I801
aI1154
aI620
aI213
aI1046
atp735
Rp736
sI245
g1
((lp737
I130
aI587
aI54
atp738
Rp739
sI246
g1
((lp740
I43
aI1163
atp741
Rp742
sI247
g1
((lp743
I1036
aI1047
atp744
Rp745
sI248
g1
((lp746
tp747
Rp748
sI249
g1
((lp749
I786
atp750
Rp751
sI250
g1
((lp752
I666
aI339
aI1134
atp753
Rp754
sI251
g1
((lp755
I760
atp756
Rp757
sI252
g1
((lp758
I984
aI876
aI949
aI1094
atp759
Rp760
sI253
g1
((lp761
I234
aI1036
aI213
atp762
Rp763
sI254
g1
((lp764
tp765
Rp766
sI255
g1
((lp767
I1195
aI1070
atp768
Rp769
sI256
g1
((lp770
I286
aI783
atp771
Rp772
sI257
g1
((lp773
I1000
aI1185
aI359
aI1111
atp774
Rp775
sI258
g1
((lp776
tp777
Rp778
sI259
g1
((lp779
I1208
aI432
aI1126
aI295
atp780
Rp781
sI260
g1
((lp782
I1112
aI1152
atp783
Rp784
sI261
g1
((lp785
I93
aI758
atp786
Rp787
sI262
g1
((lp788
I952
aI658
aI197
atp789
Rp790
sI263
g1
((lp791
I8
atp792
Rp793
sI264
g1
((lp794
I1059
aI781
aI1167
atp795
Rp796
sI265
g1
((lp797
I1080
aI512
aI831
atp798
Rp799
sI266
g1
((lp800
I906
atp801
Rp802
sI267
g1
((lp803
I312
aI425
aI1066
aI972
atp804
Rp805
sI268
g1
((lp806
I1085
aI527
atp807
Rp808
sI269
g1
((lp809
I1224
atp810
Rp811
sI270
g1
((lp812
I5
aI1077
atp813
Rp814
sI271
g1
((lp815
I92
atp816
Rp817
sI272
g1
((lp818
I1100
atp819
Rp820
sI273
g1
((lp821
I1137
aI851
aI38
atp822
Rp823
sI274
g1
((lp824
I212
aI965
atp825
Rp826
sI275
g1
((lp827
tp828
Rp829
sI276
g1
((lp830
I897
aI1121
aI615
aI44
aI572
aI477
atp831
Rp832
sI277
g1
((lp833
I866
aI310
atp834
Rp835
sI278
g1
((lp836
I344
aI720
aI294
atp837
Rp838
sI279
g1
((lp839
I1147
aI453
atp840
Rp841
sI280
g1
((lp842
tp843
Rp844
sI281
g1
((lp845
I11
aI771
aI94
aI767
atp846
Rp847
sI282
g1
((lp848
I561
aI698
aI794
aI946
atp849
Rp850
sI283
g1
((lp851
I810
aI759
aI975
atp852
Rp853
sI284
g1
((lp854
I1016
aI504
aI801
aI150
aI959
atp855
Rp856
sI285
g1
((lp857
I865
aI1002
aI1190
atp858
Rp859
sI286
g1
((lp860
I256
aI773
aI134
atp861
Rp862
sI287
g1
((lp863
I90
aI823
aI892
aI703
atp864
Rp865
sI288
g1
((lp866
I939
aI644
aI1055
atp867
Rp868
sI289
g1
((lp869
I632
aI661
aI1222
atp870
Rp871
sI290
g1
((lp872
I749
atp873
Rp874
sI291
g1
((lp875
I150
aI295
atp876
Rp877
sI292
g1
((lp878
tp879
Rp880
sI293
g1
((lp881
tp882
Rp883
sI294
g1
((lp884
I377
aI364
aI278
atp885
Rp886
sI295
g1
((lp887
I259
aI811
aI291
aI1116
aI1038
atp888
Rp889
sI296
g1
((lp890
I451
aI732
aI229
atp891
Rp892
sI297
g1
((lp893
I386
aI16
aI242
aI1205
aI764
aI413
atp894
Rp895
sI298
g1
((lp896
tp897
Rp898
sI299
g1
((lp899
I5
aI486
atp900
Rp901
sI300
g1
((lp902
I929
aI622
atp903
Rp904
sI301
g1
((lp905
I125
aI191
atp906
Rp907
sI302
g1
((lp908
I745
aI981
aI663
atp909
Rp910
sI303
g1
((lp911
I785
atp912
Rp913
sI304
g1
((lp914
I1088
aI121
aI1122
aI446
atp915
Rp916
sI305
g1
((lp917
I569
aI1187
aI382
atp918
Rp919
sI306
g1
((lp920
I146
aI478
aI535
atp921
Rp922
sI307
g1
((lp923
I112
aI433
aI29
aI985
atp924
Rp925
sI308
g1
((lp926
I633
atp927
Rp928
sI309
g1
((lp929
I328
aI995
aI956
aI677
aI534
atp930
Rp931
sI310
g1
((lp932
I201
aI796
aI277
aI881
atp933
Rp934
sI311
g1
((lp935
I1229
aI238
aI23
atp936
Rp937
sI312
g1
((lp938
I714
aI267
atp939
Rp940
sI313
g1
((lp941
tp942
Rp943
sI314
g1
((lp944
I489
aI67
aI141
aI895
atp945
Rp946
sI315
g1
((lp947
I706
atp948
Rp949
sI316
g1
((lp950
I534
atp951
Rp952
sI317
g1
((lp953
I40
atp954
Rp955
sI318
g1
((lp956
I587
atp957
Rp958
sI319
g1
((lp959
tp960
Rp961
sI320
g1
((lp962
I712
aI1008
aI394
aI925
atp963
Rp964
sI321
g1
((lp965
I653
aI1197
atp966
Rp967
sI322
g1
((lp968
I882
atp969
Rp970
sI323
g1
((lp971
I392
aI979
atp972
Rp973
sI324
g1
((lp974
I104
aI1176
aI334
aI606
aI935
atp975
Rp976
sI325
g1
((lp977
I243
aI981
aI1126
atp978
Rp979
sI326
g1
((lp980
I530
aI573
aI399
atp981
Rp982
sI327
g1
((lp983
I882
aI443
aI981
aI1126
atp984
Rp985
sI328
g1
((lp986
I309
atp987
Rp988
sI329
g1
((lp989
tp990
Rp991
sI330
g1
((lp992
I1059
aI238
aI823
atp993
Rp994
sI331
g1
((lp995
I1098
aI755
aI998
atp996
Rp997
sI332
g1
((lp998
I536
aI621
atp999
Rp1000
sI333
g1
((lp1001
I834
aI916
aI157
atp1002
Rp1003
sI334
g1
((lp1004
I324
aI677
aI647
aI1228
aI237
aI626
atp1005
Rp1006
sI335
g1
((lp1007
I947
atp1008
Rp1009
sI336
g1
((lp1010
I848
aI1184
aI919
atp1011
Rp1012
sI337
g1
((lp1013
tp1014
Rp1015
sI338
g1
((lp1016
I1032
aI44
aI667
aI900
atp1017
Rp1018
sI339
g1
((lp1019
I250
aI867
aI1159
atp1020
Rp1021
sI340
g1
((lp1022
I873
atp1023
Rp1024
sI341
g1
((lp1025
I569
atp1026
Rp1027
sI342
g1
((lp1028
I1152
aI197
atp1029
Rp1030
sI343
g1
((lp1031
I1160
aI677
atp1032
Rp1033
sI344
g1
((lp1034
I1217
aI278
aI631
atp1035
Rp1036
sI345
g1
((lp1037
tp1038
Rp1039
sI346
g1
((lp1040
I771
aI804
aI584
aI361
aI971
aI563
aI22
aI190
atp1041
Rp1042
sI347
g1
((lp1043
I448
aI1108
aI46
aI910
atp1044
Rp1045
sI348
g1
((lp1046
I1026
aI827
atp1047
Rp1048
sI349
g1
((lp1049
I808
aI59
aI966
atp1050
Rp1051
sI350
g1
((lp1052
tp1053
Rp1054
sI351
g1
((lp1055
I527
atp1056
Rp1057
sI352
g1
((lp1058
I48
aI1056
aI954
aI1047
atp1059
Rp1060
sI353
g1
((lp1061
I368
aI601
atp1062
Rp1063
sI354
g1
((lp1064
tp1065
Rp1066
sI355
g1
((lp1067
I862
atp1068
Rp1069
sI356
g1
((lp1070
I1229
atp1071
Rp1072
sI357
g1
((lp1073
I41
aI476
atp1074
Rp1075
sI358
g1
((lp1076
I489
aI858
atp1077
Rp1078
sI359
g1
((lp1079
I257
aI874
atp1080
Rp1081
sI360
g1
((lp1082
I688
aI57
aI532
atp1083
Rp1084
sI361
g1
((lp1085
I346
aI739
aI204
aI38
atp1086
Rp1087
sI362
g1
((lp1088
I137
aI698
aI934
atp1089
Rp1090
sI363
g1
((lp1091
I36
atp1092
Rp1093
sI364
g1
((lp1094
I122
aI1019
aI294
aI790
atp1095
Rp1096
sI365
g1
((lp1097
I712
aI634
atp1098
Rp1099
sI366
g1
((lp1100
tp1101
Rp1102
sI367
g1
((lp1103
I906
aI502
aI566
aI431
atp1104
Rp1105
sI368
g1
((lp1106
I80
aI353
aI492
aI134
aI1136
atp1107
Rp1108
sI369
g1
((lp1109
I1130
aI548
atp1110
Rp1111
sI370
g1
((lp1112
I1236
aI719
atp1113
Rp1114
sI371
g1
((lp1115
I530
aI205
atp1116
Rp1117
sI372
g1
((lp1118
I1066
aI532
aI605
atp1119
Rp1120
sI373
g1
((lp1121
I704
aI922
atp1122
Rp1123
sI374
g1
((lp1124
I1224
aI1227
aI557
atp1125
Rp1126
sI375
g1
((lp1127
I207
atp1128
Rp1129
sI376
g1
((lp1130
I420
atp1131
Rp1132
sI377
g1
((lp1133
I961
aI811
aI156
aI294
aI203
atp1134
Rp1135
sI378
g1
((lp1136
I112
aI907
aI1211
atp1137
Rp1138
sI379
g1
((lp1139
I489
aI691
atp1140
Rp1141
sI380
g1
((lp1142
I1142
atp1143
Rp1144
sI381
g1
((lp1145
I953
atp1146
Rp1147
sI382
g1
((lp1148
I305
aI445
aI230
atp1149
Rp1150
sI383
g1
((lp1151
I794
aI1211
atp1152
Rp1153
sI384
g1
((lp1154
I204
atp1155
Rp1156
sI385
g1
((lp1157
I984
aI951
aI1023
aI1187
aI1095
atp1158
Rp1159
sI386
g1
((lp1160
I297
aI170
aI489
atp1161
Rp1162
sI387
g1
((lp1163
I1051
aI542
aI871
atp1164
Rp1165
sI388
g1
((lp1166
I62
aI470
atp1167
Rp1168
sI389
g1
((lp1169
tp1170
Rp1171
sI390
g1
((lp1172
tp1173
Rp1174
sI391
g1
((lp1175
I495
atp1176
Rp1177
sI392
g1
((lp1178
I930
aI323
aI943
aI468
aI985
aI667
aI669
atp1179
Rp1180
sI393
g1
((lp1181
I1200
aI636
aI133
aI654
atp1182
Rp1183
sI394
g1
((lp1184
I184
aI320
aI648
aI1084
aI528
atp1185
Rp1186
sI395
g1
((lp1187
I1135
aI1151
atp1188
Rp1189
sI396
g1
((lp1190
I840
aI413
aI1023
atp1191
Rp1192
sI397
g1
((lp1193
I1224
aI25
aI786
aI524
atp1194
Rp1195
sI398
g1
((lp1196
I1024
aI747
aI495
atp1197
Rp1198
sI399
g1
((lp1199
I525
aI326
atp1200
Rp1201
sI400
g1
((lp1202
I434
aI690
atp1203
Rp1204
sI401
g1
((lp1205
tp1206
Rp1207
sI402
g1
((lp1208
I1144
aI906
aI428
atp1209
Rp1210
sI403
g1
((lp1211
I169
aI939
atp1212
Rp1213
sI404
g1
((lp1214
I1232
aI814
atp1215
Rp1216
sI405
g1
((lp1217
I521
aI538
aI455
aI1017
atp1218
Rp1219
sI406
g1
((lp1220
I123
aI212
aI701
atp1221
Rp1222
sI407
g1
((lp1223
I1153
aI677
aI422
atp1224
Rp1225
sI408
g1
((lp1226
I1096
aI831
atp1227
Rp1228
sI409
g1
((lp1229
I800
aI762
aI674
aI37
atp1230
Rp1231
sI410
g1
((lp1232
I196
aI1079
atp1233
Rp1234
sI411
g1
((lp1235
I667
atp1236
Rp1237
sI412
g1
((lp1238
I529
aI713
aI36
aI1143
atp1239
Rp1240
sI413
g1
((lp1241
I297
aI219
aI396
aI1140
atp1242
Rp1243
sI414
g1
((lp1244
I152
aI869
atp1245
Rp1246
sI415
g1
((lp1247
I778
atp1248
Rp1249
sI416
g1
((lp1250
I3
aI540
aI1189
aI751
atp1251
Rp1252
sI417
g1
((lp1253
I72
aI747
atp1254
Rp1255
sI418
g1
((lp1256
I157
aI1189
atp1257
Rp1258
sI419
g1
((lp1259
I570
aI159
atp1260
Rp1261
sI420
g1
((lp1262
I376
aI923
aI996
aI150
atp1263
Rp1264
sI421
g1
((lp1265
I665
atp1266
Rp1267
sI422
g1
((lp1268
I801
aI407
aI484
aI495
atp1269
Rp1270
sI423
g1
((lp1271
I936
aI450
atp1272
Rp1273
sI424
g1
((lp1274
I65
aI527
atp1275
Rp1276
sI425
g1
((lp1277
I800
aI1233
aI267
atp1278
Rp1279
sI426
g1
((lp1280
I908
atp1281
Rp1282
sI427
g1
((lp1283
I835
aI37
aI1030
aI1008
aI881
aI60
aI1151
atp1284
Rp1285
sI428
g1
((lp1286
I402
atp1287
Rp1288
sI429
g1
((lp1289
I72
aI528
aI684
atp1290
Rp1291
sI430
g1
((lp1292
I148
atp1293
Rp1294
sI431
g1
((lp1295
I1213
aI367
atp1296
Rp1297
sI432
g1
((lp1298
I632
aI259
atp1299
Rp1300
sI433
g1
((lp1301
I307
aI564
aI909
atp1302
Rp1303
sI434
g1
((lp1304
I400
aI474
aI875
aI1063
atp1305
Rp1306
sI435
g1
((lp1307
I587
aI1166
atp1308
Rp1309
sI436
g1
((lp1310
I684
aI1125
atp1311
Rp1312
sI437
g1
((lp1313
I8
aI1121
aI443
aI28
aI508
atp1314
Rp1315
sI438
g1
((lp1316
I1132
atp1317
Rp1318
sI439
g1
((lp1319
I890
atp1320
Rp1321
sI440
g1
((lp1322
I929
aI763
aI109
aI654
atp1323
Rp1324
sI441
g1
((lp1325
tp1326
Rp1327
sI442
g1
((lp1328
I1195
atp1329
Rp1330
sI443
g1
((lp1331
I327
aI437
aI597
atp1332
Rp1333
sI444
g1
((lp1334
I555
atp1335
Rp1336
sI445
g1
((lp1337
I545
aI694
aI1021
aI382
aI21
atp1338
Rp1339
sI446
g1
((lp1340
I304
aI28
atp1341
Rp1342
sI447
g1
((lp1343
I501
aI878
atp1344
Rp1345
sI448
g1
((lp1346
I865
aI347
aI540
aI1044
atp1347
Rp1348
sI449
g1
((lp1349
I875
aI973
atp1350
Rp1351
sI450
g1
((lp1352
I423
atp1353
Rp1354
sI451
g1
((lp1355
I296
aI1180
aI1031
atp1356
Rp1357
sI452
g1
((lp1358
I600
aI808
aI1084
atp1359
Rp1360
sI453
g1
((lp1361
I481
aI279
aI903
atp1362
Rp1363
sI454
g1
((lp1364
I1021
atp1365
Rp1366
sI455
g1
((lp1367
I203
aI405
aI190
atp1368
Rp1369
sI456
g1
((lp1370
I1236
aI548
atp1371
Rp1372
sI457
g1
((lp1373
I1041
atp1374
Rp1375
sI458
g1
((lp1376
I960
aI540
aI1190
atp1377
Rp1378
sI459
g1
((lp1379
tp1380
Rp1381
sI460
g1
((lp1382
I843
aI187
atp1383
Rp1384
sI461
g1
((lp1385
I891
atp1386
Rp1387
sI462
g1
((lp1388
I99
atp1389
Rp1390
sI463
g1
((lp1391
I513
aI642
aI558
atp1392
Rp1393
sI464
g1
((lp1394
I883
aI87
atp1395
Rp1396
sI465
g1
((lp1397
tp1398
Rp1399
sI466
g1
((lp1400
I1111
atp1401
Rp1402
sI467
g1
((lp1403
tp1404
Rp1405
sI468
g1
((lp1406
I392
aI217
aI699
aI100
aI1175
atp1407
Rp1408
sI469
g1
((lp1409
I650
aI198
atp1410
Rp1411
sI470
g1
((lp1412
I388
atp1413
Rp1414
sI471
g1
((lp1415
tp1416
Rp1417
sI472
g1
((lp1418
tp1419
Rp1420
sI473
g1
((lp1421
I32
aI852
atp1422
Rp1423
sI474
g1
((lp1424
I775
aI553
aI434
aI49
aI178
aI90
atp1425
Rp1426
sI475
g1
((lp1427
I225
aI111
aI999
atp1428
Rp1429
sI476
g1
((lp1430
I357
aI926
aI1198
atp1431
Rp1432
sI477
g1
((lp1433
I276
atp1434
Rp1435
sI478
g1
((lp1436
I306
aI965
atp1437
Rp1438
sI479
g1
((lp1439
I633
aI940
aI39
atp1440
Rp1441
sI480
g1
((lp1442
I1160
aI10
aI812
atp1443
Rp1444
sI481
g1
((lp1445
I1065
aI506
aI18
aI453
atp1446
Rp1447
sI482
g1
((lp1448
tp1449
Rp1450
sI483
g1
((lp1451
tp1452
Rp1453
sI484
g1
((lp1454
I97
aI594
aI422
atp1455
Rp1456
sI485
g1
((lp1457
I1073
atp1458
Rp1459
sI486
g1
((lp1460
I299
aI1238
aI195
aI1003
atp1461
Rp1462
sI487
g1
((lp1463
tp1464
Rp1465
sI488
g1
((lp1466
tp1467
Rp1468
sI489
g1
((lp1469
I386
aI739
aI358
aI1200
aI314
aI379
atp1470
Rp1471
sI490
g1
((lp1472
I848
aI1144
aI124
atp1473
Rp1474
sI491
g1
((lp1475
I1136
atp1476
Rp1477
sI492
g1
((lp1478
I368
aI821
atp1479
Rp1480
sI493
g1
((lp1481
I1060
aI22
atp1482
Rp1483
sI494
g1
((lp1484
I1054
atp1485
Rp1486
sI495
g1
((lp1487
I391
aI398
aI422
aI567
atp1488
Rp1489
sI496
g1
((lp1490
I209
aI1003
aI797
aI857
atp1491
Rp1492
sI497
g1
((lp1493
tp1494
Rp1495
sI498
g1
((lp1496
I145
atp1497
Rp1498
sI499
g1
((lp1499
I517
aI974
atp1500
Rp1501
sI500
g1
((lp1502
I795
aI733
aI1086
aI975
atp1503
Rp1504
sI501
g1
((lp1505
I447
atp1506
Rp1507
sI502
g1
((lp1508
I1140
aI367
atp1509
Rp1510
sI503
g1
((lp1511
tp1512
Rp1513
sI504
g1
((lp1514
I1032
aI1187
aI284
atp1515
Rp1516
sI505
g1
((lp1517
I595
aI623
atp1518
Rp1519
sI506
g1
((lp1520
I481
aI1070
aI815
atp1521
Rp1522
sI507
g1
((lp1523
I87
aI1023
atp1524
Rp1525
sI508
g1
((lp1526
I843
aI437
aI599
atp1527
Rp1528
sI509
g1
((lp1529
I65
atp1530
Rp1531
sI510
g1
((lp1532
tp1533
Rp1534
sI511
g1
((lp1535
I0
aI798
aI1230
aI1006
aI37
atp1536
Rp1537
sI512
g1
((lp1538
I265
aI922
atp1539
Rp1540
sI513
g1
((lp1541
I463
atp1542
Rp1543
sI514
g1
((lp1544
I64
aI35
aI604
aI557
aI1061
atp1545
Rp1546
sI515
g1
((lp1547
I52
aI626
aI940
aI882
aI567
atp1548
Rp1549
sI516
g1
((lp1550
I145
aI693
atp1551
Rp1552
sI517
g1
((lp1553
I499
aI133
atp1554
Rp1555
sI518
g1
((lp1556
I813
atp1557
Rp1558
sI519
g1
((lp1559
I1120
atp1560
Rp1561
sI520
g1
((lp1562
I144
aI888
aI1188
atp1563
Rp1564
sI521
g1
((lp1565
I1090
aI199
aI811
aI1204
aI405
aI1111
atp1566
Rp1567
sI522
g1
((lp1568
I1001
aI1118
aI654
atp1569
Rp1570
sI523
g1
((lp1571
I916
aI799
atp1572
Rp1573
sI524
g1
((lp1574
I2
aI179
aI397
atp1575
Rp1576
sI525
g1
((lp1577
I1210
aI950
aI399
atp1578
Rp1579
sI526
g1
((lp1580
I556
atp1581
Rp1582
sI527
g1
((lp1583
I424
aI268
aI351
aI740
aI823
atp1584
Rp1585
sI528
g1
((lp1586
I178
aI394
aI429
atp1587
Rp1588
sI529
g1
((lp1589
I1128
aI412
aI615
atp1590
Rp1591
sI530
g1
((lp1592
I371
aI988
aI326
atp1593
Rp1594
sI531
g1
((lp1595
I714
atp1596
Rp1597
sI532
g1
((lp1598
I360
aI657
aI372
atp1599
Rp1600
sI533
g1
((lp1601
I1028
aI573
atp1602
Rp1603
sI534
g1
((lp1604
I771
aI316
aI309
aI743
atp1605
Rp1606
sI535
g1
((lp1607
I633
aI306
aI83
atp1608
Rp1609
sI536
g1
((lp1610
I332
aI829
aI750
atp1611
Rp1612
sI537
g1
((lp1613
I1036
aI141
aI670
atp1614
Rp1615
sI538
g1
((lp1616
I168
aI944
aI602
aI405
aI1181
atp1617
Rp1618
sI539
g1
((lp1619
I1017
aI77
aI102
aI589
atp1620
Rp1621
sI540
g1
((lp1622
I208
aI416
aI458
aI779
aI448
atp1623
Rp1624
sI541
g1
((lp1625
I696
atp1626
Rp1627
sI542
g1
((lp1628
I681
aI242
aI387
aI675
atp1629
Rp1630
sI543
g1
((lp1631
tp1632
Rp1633
sI544
g1
((lp1634
I1176
aI785
aI770
aI973
aI15
atp1635
Rp1636
sI545
g1
((lp1637
I445
aI775
atp1638
Rp1639
sI546
g1
((lp1640
I720
aI636
aI1186
aI596
aI653
atp1641
Rp1642
sI547
g1
((lp1643
I1050
aI1166
atp1644
Rp1645
sI548
g1
((lp1646
I456
aI369
aI12
aI31
atp1647
Rp1648
sI549
g1
((lp1649
I971
atp1650
Rp1651
sI550
g1
((lp1652
I1176
aI1151
atp1653
Rp1654
sI551
g1
((lp1655
I897
aI862
aI694
aI1095
atp1656
Rp1657
sI552
g1
((lp1658
I825
aI171
aI919
atp1659
Rp1660
sI553
g1
((lp1661
I474
aI790
atp1662
Rp1663
sI554
g1
((lp1664
I782
atp1665
Rp1666
sI555
g1
((lp1667
I793
aI444
aI791
atp1668
Rp1669
sI556
g1
((lp1670
I526
aI958
atp1671
Rp1672
sI557
g1
((lp1673
I929
aI514
aI1194
aI946
aI374
aI573
atp1674
Rp1675
sI558
g1
((lp1676
I726
aI463
atp1677
Rp1678
sI559
g1
((lp1679
I673
aI1092
aI977
atp1680
Rp1681
sI560
g1
((lp1682
I1064
aI849
atp1683
Rp1684
sI561
g1
((lp1685
I641
aI282
aI676
aI566
aI884
atp1686
Rp1687
sI562
g1
((lp1688
I976
aI641
atp1689
Rp1690
sI563
g1
((lp1691
I346
aI1175
atp1692
Rp1693
sI564
g1
((lp1694
I76
aI433
aI948
atp1695
Rp1696
sI565
g1
((lp1697
I656
aI766
atp1698
Rp1699
sI566
g1
((lp1700
I561
aI1180
aI367
atp1701
Rp1702
sI567
g1
((lp1703
I1218
aI515
aI999
aI183
aI495
atp1704
Rp1705
sI568
g1
((lp1706
I632
aI123
aI612
atp1707
Rp1708
sI569
g1
((lp1709
I305
aI341
aI823
atp1710
Rp1711
sI570
g1
((lp1712
I419
aI650
aI205
aI974
aI846
aI30
aI1205
atp1713
Rp1714
sI571
g1
((lp1715
tp1716
Rp1717
sI572
g1
((lp1718
I997
aI1159
aI276
aI926
aI985
aI574
atp1719
Rp1720
sI573
g1
((lp1721
I557
aI1189
aI326
aI533
atp1722
Rp1723
sI574
g1
((lp1724
I572
atp1725
Rp1726
sI575
g1
((lp1727
I1047
atp1728
Rp1729
sI576
g1
((lp1730
I734
atp1731
Rp1732
sI577
g1
((lp1733
I634
atp1734
Rp1735
sI578
g1
((lp1736
I1022
atp1737
Rp1738
sI579
g1
((lp1739
I42
atp1740
Rp1741
sI580
g1
((lp1742
I967
atp1743
Rp1744
sI581
g1
((lp1745
I760
atp1746
Rp1747
sI582
g1
((lp1748
I19
atp1749
Rp1750
sI583
g1
((lp1751
I1210
aI637
aI878
atp1752
Rp1753
sI584
g1
((lp1754
I0
aI1113
aI346
aI1216
atp1755
Rp1756
sI585
g1
((lp1757
tp1758
Rp1759
sI586
g1
((lp1760
I962
aI1070
atp1761
Rp1762
sI587
g1
((lp1763
I435
aI245
aI318
aI1029
atp1764
Rp1765
sI588
g1
((lp1766
I76
aI719
atp1767
Rp1768
sI589
g1
((lp1769
I864
aI115
aI539
atp1770
Rp1771
sI590
g1
((lp1772
I960
aI764
aI862
atp1773
Rp1774
sI591
g1
((lp1775
I952
atp1776
Rp1777
sI592
g1
((lp1778
I799
atp1779
Rp1780
sI593
g1
((lp1781
I636
atp1782
Rp1783
sI594
g1
((lp1784
I48
aI484
atp1785
Rp1786
sI595
g1
((lp1787
I505
aI814
aI665
atp1788
Rp1789
sI596
g1
((lp1790
I546
aI52
atp1791
Rp1792
sI597
g1
((lp1793
I1114
aI443
aI694
aI631
atp1794
Rp1795
sI598
g1
((lp1796
I1176
aI189
aI630
atp1797
Rp1798
sI599
g1
((lp1799
I179
aI508
atp1800
Rp1801
sI600
g1
((lp1802
I643
aI452
atp1803
Rp1804
sI601
g1
((lp1805
I353
aI738
aI969
atp1806
Rp1807
sI602
g1
((lp1808
I208
aI538
aI627
aI636
atp1809
Rp1810
sI603
g1
((lp1811
I64
atp1812
Rp1813
sI604
g1
((lp1814
I514
atp1815
Rp1816
sI605
g1
((lp1817
I1194
aI372
atp1818
Rp1819
sI606
g1
((lp1820
I883
aI324
atp1821
Rp1822
sI607
g1
((lp1823
I691
aI862
atp1824
Rp1825
sI608
g1
((lp1826
I1225
aI29
atp1827
Rp1828
sI609
g1
((lp1829
I665
aI658
aI675
atp1830
Rp1831
sI610
g1
((lp1832
I1103
atp1833
Rp1834
sI611
g1
((lp1835
I728
aI213
aI878
atp1836
Rp1837
sI612
g1
((lp1838
I568
aI864
aI37
aI958
atp1839
Rp1840
sI613
g1
((lp1841
tp1842
Rp1843
sI614
g1
((lp1844
I236
atp1845
Rp1846
sI615
g1
((lp1847
I529
aI276
aI945
aI1079
atp1848
Rp1849
sI616
g1
((lp1850
I843
aI788
aI1038
atp1851
Rp1852
sI617
g1
((lp1853
I188
aI117
aI1015
atp1854
Rp1855
sI618
g1
((lp1856
I985
aI155
atp1857
Rp1858
sI619
g1
((lp1859
I1113
aI1015
atp1860
Rp1861
sI620
g1
((lp1862
I156
aI203
aI244
atp1863
Rp1864
sI621
g1
((lp1865
I332
atp1866
Rp1867
sI622
g1
((lp1868
I992
aI1186
aI300
atp1869
Rp1870
sI623
g1
((lp1871
I505
aI746
aI876
aI989
aI892
atp1872
Rp1873
sI624
g1
((lp1874
tp1875
Rp1876
sI625
g1
((lp1877
I738
aI747
aI213
aI975
atp1878
Rp1879
sI626
g1
((lp1880
I1122
aI515
aI334
aI790
atp1881
Rp1882
sI627
g1
((lp1883
I602
aI796
aI143
atp1884
Rp1885
sI628
g1
((lp1886
I841
aI1044
atp1887
Rp1888
sI629
g1
((lp1889
I1208
atp1890
Rp1891
sI630
g1
((lp1892
I1136
aI236
aI222
aI598
atp1893
Rp1894
sI631
g1
((lp1895
I1092
aI837
aI651
aI1036
aI597
aI344
atp1896
Rp1897
sI632
g1
((lp1898
I432
aI289
aI151
aI1136
aI568
atp1899
Rp1900
sI633
g1
((lp1901
I479
aI308
aI535
atp1902
Rp1903
sI634
g1
((lp1904
I160
aI577
aI832
aI141
aI365
aI123
atp1905
Rp1906
sI635
g1
((lp1907
I722
aI885
atp1908
Rp1909
sI636
g1
((lp1910
I546
aI393
aI1007
aI593
aI724
aI118
aI602
atp1911
Rp1912
sI637
g1
((lp1913
I1177
aI583
atp1914
Rp1915
sI638
g1
((lp1916
I1170
aI221
atp1917
Rp1918
sI639
g1
((lp1919
I1049
atp1920
Rp1921
sI640
g1
((lp1922
I916
aI750
atp1923
Rp1924
sI641
g1
((lp1925
I561
aI562
aI1039
atp1926
Rp1927
sI642
g1
((lp1928
I1065
aI723
aI676
aI463
atp1929
Rp1930
sI643
g1
((lp1931
I600
aI960
aI1036
aI1126
atp1932
Rp1933
sI644
g1
((lp1934
I288
aI1022
aI687
atp1935
Rp1936
sI645
g1
((lp1937
I779
atp1938
Rp1939
sI646
g1
((lp1940
I698
aI788
atp1941
Rp1942
sI647
g1
((lp1943
I90
aI334
atp1944
Rp1945
sI648
g1
((lp1946
I937
aI394
aI1121
atp1947
Rp1948
sI649
g1
((lp1949
I826
aI911
atp1950
Rp1951
sI650
g1
((lp1952
I912
aI1040
aI570
aI836
aI469
atp1953
Rp1954
sI651
g1
((lp1955
I1052
aI631
atp1956
Rp1957
sI652
g1
((lp1958
I1017
atp1959
Rp1960
sI653
g1
((lp1961
I321
aI546
aI756
aI1068
aI953
atp1962
Rp1963
sI654
g1
((lp1964
I440
aI393
aI522
aI928
atp1965
Rp1966
sI655
g1
((lp1967
tp1968
Rp1969
sI656
g1
((lp1970
I565
atp1971
Rp1972
sI657
g1
((lp1973
I122
aI532
atp1974
Rp1975
sI658
g1
((lp1976
I609
aI1036
aI885
aI262
atp1977
Rp1978
sI659
g1
((lp1979
I829
atp1980
Rp1981
sI660
g1
((lp1982
I56
aI993
aI1216
atp1983
Rp1984
sI661
g1
((lp1985
I289
aI1022
aI1231
atp1986
Rp1987
sI662
g1
((lp1988
tp1989
Rp1990
sI663
g1
((lp1991
I128
aI302
atp1992
Rp1993
sI664
g1
((lp1994
I780
atp1995
Rp1996
sI665
g1
((lp1997
I609
aI595
aI421
atp1998
Rp1999
sI666
g1
((lp2000
I1104
aI250
atp2001
Rp2002
sI667
g1
((lp2003
I392
aI338
aI411
aI826
atp2004
Rp2005
sI668
g1
((lp2006
tp2007
Rp2008
sI669
g1
((lp2009
I392
aI201
atp2010
Rp2011
sI670
g1
((lp2012
I184
aI537
atp2013
Rp2014
sI671
g1
((lp2015
I863
atp2016
Rp2017
sI672
g1
((lp2018
I690
aI731
atp2019
Rp2020
sI673
g1
((lp2021
I728
aI792
aI965
aI559
atp2022
Rp2023
sI674
g1
((lp2024
I409
aI697
atp2025
Rp2026
sI675
g1
((lp2027
I609
aI542
atp2028
Rp2029
sI676
g1
((lp2030
I642
aI37
aI780
aI750
aI1103
aI561
aI118
atp2031
Rp2032
sI677
g1
((lp2033
I738
aI407
aI334
aI309
aI343
aI926
atp2034
Rp2035
sI678
g1
((lp2036
I233
aI1068
aI15
atp2037
Rp2038
sI679
g1
((lp2039
I146
aI749
atp2040
Rp2041
sI680
g1
((lp2042
tp2043
Rp2044
sI681
g1
((lp2045
I841
aI542
atp2046
Rp2047
sI682
g1
((lp2048
I1037
atp2049
Rp2050
sI683
g1
((lp2051
I132
aI1066
aI1220
aI750
atp2052
Rp2053
sI684
g1
((lp2054
I872
aI436
aI429
atp2055
Rp2056
sI685
g1
((lp2057
tp2058
Rp2059
sI686
g1
((lp2060
I1050
atp2061
Rp2062
sI687
g1
((lp2063
I1192
aI644
aI807
atp2064
Rp2065
sI688
g1
((lp2066
I360
aI825
atp2067
Rp2068
sI689
g1
((lp2069
I1182
atp2070
Rp2071
sI690
g1
((lp2072
I400
aI672
atp2073
Rp2074
sI691
g1
((lp2075
I1026
aI379
aI1164
aI607
atp2076
Rp2077
sI692
g1
((lp2078
I762
aI99
atp2079
Rp2080
sI693
g1
((lp2081
I516
aI1068
atp2082
Rp2083
sI694
g1
((lp2084
I551
aI445
aI597
atp2085
Rp2086
sI695
g1
((lp2087
I753
aI875
atp2088
Rp2089
sI696
g1
((lp2090
I541
atp2091
Rp2092
sI697
g1
((lp2093
I674
aI93
atp2094
Rp2095
sI698
g1
((lp2096
I282
aI12
aI362
aI646
aI735
atp2097
Rp2098
sI699
g1
((lp2099
I468
atp2100
Rp2101
sI700
g1
((lp2102
I729
atp2103
Rp2104
sI701
g1
((lp2105
I105
aI930
aI406
aI1166
atp2106
Rp2107
sI702
g1
((lp2108
I780
aI1223
atp2109
Rp2110
sI703
g1
((lp2111
I287
atp2112
Rp2113
sI704
g1
((lp2114
I795
aI373
atp2115
Rp2116
sI705
g1
((lp2117
I141
atp2118
Rp2119
sI706
g1
((lp2120
I315
aI893
atp2121
Rp2122
sI707
g1
((lp2123
tp2124
Rp2125
sI708
g1
((lp2126
I1033
aI164
atp2127
Rp2128
sI709
g1
((lp2129
I1010
aI1122
aI77
atp2130
Rp2131
sI710
g1
((lp2132
I239
atp2133
Rp2134
sI711
g1
((lp2135
tp2136
Rp2137
sI712
g1
((lp2138
I320
aI365
atp2139
Rp2140
sI713
g1
((lp2141
I1096
aI412
aI69
atp2142
Rp2143
sI714
g1
((lp2144
I312
aI531
aI1044
atp2145
Rp2146
sI715
g1
((lp2147
I1038
atp2148
Rp2149
sI716
g1
((lp2150
I73
aI35
aI1116
atp2151
Rp2152
sI717
g1
((lp2153
I1064
atp2154
Rp2155
sI718
g1
((lp2156
I161
aI805
aI1071
atp2157
Rp2158
sI719
g1
((lp2159
I370
aI588
aI86
atp2160
Rp2161
sI720
g1
((lp2162
I546
aI900
aI278
aI1054
atp2163
Rp2164
sI721
g1
((lp2165
I111
atp2166
Rp2167
sI722
g1
((lp2168
I635
aI43
atp2169
Rp2170
sI723
g1
((lp2171
I642
aI778
atp2172
Rp2173
sI724
g1
((lp2174
I1083
aI636
aI783
atp2175
Rp2176
sI725
g1
((lp2177
I1203
aI892
aI782
aI1143
atp2178
Rp2179
sI726
g1
((lp2180
I781
aI558
atp2181
Rp2182
sI727
g1
((lp2183
I93
atp2184
Rp2185
sI728
g1
((lp2186
I673
aI611
aI999
atp2187
Rp2188
sI729
g1
((lp2189
I1001
aI779
aI700
aI1230
aI1190
atp2190
Rp2191
sI730
g1
((lp2192
I881
atp2193
Rp2194
sI731
g1
((lp2195
I672
aI891
atp2196
Rp2197
sI732
g1
((lp2198
I296
atp2199
Rp2200
sI733
g1
((lp2201
I153
aI500
atp2202
Rp2203
sI734
g1
((lp2204
I576
aI12
atp2205
Rp2206
sI735
g1
((lp2207
I208
aI698
atp2208
Rp2209
sI736
g1
((lp2210
tp2211
Rp2212
sI737
g1
((lp2213
I1124
aI1109
atp2214
Rp2215
sI738
g1
((lp2216
I601
aI625
aI677
aI777
atp2217
Rp2218
sI739
g1
((lp2219
I361
aI489
atp2220
Rp2221
sI740
g1
((lp2222
I527
atp2223
Rp2224
sI741
g1
((lp2225
I1066
aI811
aI30
aI191
atp2226
Rp2227
sI742
g1
((lp2228
I96
atp2229
Rp2230
sI743
g1
((lp2231
I534
aI199
atp2232
Rp2233
sI744
g1
((lp2234
I51
atp2235
Rp2236
sI745
g1
((lp2237
I144
aI302
atp2238
Rp2239
sI746
g1
((lp2240
I623
atp2241
Rp2242
sI747
g1
((lp2243
I417
aI230
aI993
aI398
aI625
aI854
aI1082
atp2244
Rp2245
sI748
g1
((lp2246
tp2247
Rp2248
sI749
g1
((lp2249
I290
aI679
aI903
atp2250
Rp2251
sI750
g1
((lp2252
I640
aI67
aI676
aI1222
aI683
aI536
atp2253
Rp2254
sI751
g1
((lp2255
I416
aI97
aI1061
atp2256
Rp2257
sI752
g1
((lp2258
I69
atp2259
Rp2260
sI753
g1
((lp2261
I786
aI695
atp2262
Rp2263
sI754
g1
((lp2264
I136
aI193
aI1072
atp2265
Rp2266
sI755
g1
((lp2267
I963
aI906
aI331
aI236
aI1163
aI1142
aI794
atp2268
Rp2269
sI756
g1
((lp2270
I653
aI945
aI901
aI197
atp2271
Rp2272
sI757
g1
((lp2273
I802
atp2274
Rp2275
sI758
g1
((lp2276
I261
atp2277
Rp2278
sI759
g1
((lp2279
I18
aI283
atp2280
Rp2281
sI760
g1
((lp2282
I89
aI251
aI20
aI581
atp2283
Rp2284
sI761
g1
((lp2285
tp2286
Rp2287
sI762
g1
((lp2288
I409
aI692
atp2289
Rp2290
sI763
g1
((lp2291
I440
atp2292
Rp2293
sI764
g1
((lp2294
I297
aI1092
aI590
atp2295
Rp2296
sI765
g1
((lp2297
I2
atp2298
Rp2299
sI766
g1
((lp2300
I900
aI42
aI1028
aI565
atp2301
Rp2302
sI767
g1
((lp2303
I177
aI281
aI1209
atp2304
Rp2305
sI768
g1
((lp2306
I792
aI1179
atp2307
Rp2308
sI769
g1
((lp2309
tp2310
Rp2311
sI770
g1
((lp2312
I544
aI1121
aI45
atp2313
Rp2314
sI771
g1
((lp2315
I281
aI346
aI173
aI534
atp2316
Rp2317
sI772
g1
((lp2318
I183
aI911
atp2319
Rp2320
sI773
g1
((lp2321
I107
aI1236
aI286
aI1135
atp2322
Rp2323
sI774
g1
((lp2324
I995
aI814
aI855
atp2325
Rp2326
sI775
g1
((lp2327
I776
aI545
aI474
atp2328
Rp2329
sI776
g1
((lp2330
I775
aI870
aI1175
atp2331
Rp2332
sI777
g1
((lp2333
I738
aI221
atp2334
Rp2335
sI778
g1
((lp2336
I723
aI415
atp2337
Rp2338
sI779
g1
((lp2339
I729
aI1034
aI540
aI645
atp2340
Rp2341
sI780
g1
((lp2342
I664
aI1048
aI676
aI702
atp2343
Rp2344
sI781
g1
((lp2345
I264
aI726
atp2346
Rp2347
sI782
g1
((lp2348
I554
aI725
aI942
atp2349
Rp2350
sI783
g1
((lp2351
I256
aI724
aI1028
aI119
atp2352
Rp2353
sI784
g1
((lp2354
I1184
atp2355
Rp2356
sI785
g1
((lp2357
I544
aI1224
aI303
aI207
atp2358
Rp2359
sI786
g1
((lp2360
I249
aI1162
aI397
aI753
atp2361
Rp2362
sI787
g1
((lp2363
I1129
aI999
atp2364
Rp2365
sI788
g1
((lp2366
I616
aI106
aI646
atp2367
Rp2368
sI789
g1
((lp2369
I225
aI867
aI1125
atp2370
Rp2371
sI790
g1
((lp2372
I1072
aI553
aI626
aI364
atp2373
Rp2374
sI791
g1
((lp2375
I555
atp2376
Rp2377
sI792
g1
((lp2378
I768
aI673
aI1010
atp2379
Rp2380
sI793
g1
((lp2381
I224
aI555
atp2382
Rp2383
sI794
g1
((lp2384
I1112
aI383
aI282
aI139
aI755
atp2385
Rp2386
sI795
g1
((lp2387
I704
aI500
atp2388
Rp2389
sI796
g1
((lp2390
I1088
aI627
aI310
atp2391
Rp2392
sI797
g1
((lp2393
I496
aI1015
atp2394
Rp2395
sI798
g1
((lp2396
I30
aI511
atp2397
Rp2398
sI799
g1
((lp2399
I592
aI50
aI523
aI231
atp2400
Rp2401
sI800
g1
((lp2402
I409
aI425
atp2403
Rp2404
sI801
g1
((lp2405
I940
aI284
aI244
aI422
aI1153
atp2406
Rp2407
sI802
g1
((lp2408
I833
aI5
aI1006
aI757
atp2409
Rp2410
sI803
g1
((lp2411
I951
atp2412
Rp2413
sI804
g1
((lp2414
I346
atp2415
Rp2416
sI805
g1
((lp2417
I718
atp2418
Rp2419
sI806
g1
((lp2420
tp2421
Rp2422
sI807
g1
((lp2423
I687
atp2424
Rp2425
sI808
g1
((lp2426
I4
aI452
aI349
aI1052
atp2427
Rp2428
sI809
g1
((lp2429
tp2430
Rp2431
sI810
g1
((lp2432
I283
atp2433
Rp2434
sI811
g1
((lp2435
I377
aI521
aI741
aI1206
aI295
atp2436
Rp2437
sI812
g1
((lp2438
I480
aI1178
aI1012
atp2439
Rp2440
sI813
g1
((lp2441
I1235
aI518
atp2442
Rp2443
sI814
g1
((lp2444
I1002
aI595
aI404
aI774
atp2445
Rp2446
sI815
g1
((lp2447
I216
aI33
aI506
aI1101
atp2448
Rp2449
sI816
g1
((lp2450
tp2451
Rp2452
sI817
g1
((lp2453
tp2454
Rp2455
sI818
g1
((lp2456
tp2457
Rp2458
sI819
g1
((lp2459
I1133
atp2460
Rp2461
sI820
g1
((lp2462
tp2463
Rp2464
sI821
g1
((lp2465
I857
aI492
aI1151
atp2466
Rp2467
sI822
g1
((lp2468
I40
aI45
aI165
atp2469
Rp2470
sI823
g1
((lp2471
I569
aI330
aI287
aI527
atp2472
Rp2473
sI824
g1
((lp2474
tp2475
Rp2476
sI825
g1
((lp2477
I552
aI688
aI967
atp2478
Rp2479
sI826
g1
((lp2480
I649
aI1091
aI667
aI227
atp2481
Rp2482
sI827
g1
((lp2483
I348
atp2484
Rp2485
sI828
g1
((lp2486
tp2487
Rp2488
sI829
g1
((lp2489
I536
aI659
aI148
aI1235
aI1063
atp2490
Rp2491
sI830
g1
((lp2492
I968
aI940
aI158
atp2493
Rp2494
sI831
g1
((lp2495
I408
aI265
aI82
aI939
aI855
atp2496
Rp2497
sI832
g1
((lp2498
I634
aI87
atp2499
Rp2500
sI833
g1
((lp2501
I802
atp2502
Rp2503
sI834
g1
((lp2504
I333
aI1206
atp2505
Rp2506
sI835
g1
((lp2507
I859
aI427
aI1126
atp2508
Rp2509
sI836
g1
((lp2510
I650
atp2511
Rp2512
sI837
g1
((lp2513
I631
atp2514
Rp2515
sI838
g1
((lp2516
I1087
atp2517
Rp2518
sI839
g1
((lp2519
I55
atp2520
Rp2521
sI840
g1
((lp2522
I219
aI396
aI910
atp2523
Rp2524
sI841
g1
((lp2525
I681
aI954
aI628
atp2526
Rp2527
sI842
g1
((lp2528
I225
atp2529
Rp2530
sI843
g1
((lp2531
I616
aI460
aI508
atp2532
Rp2533
sI844
g1
((lp2534
tp2535
Rp2536
sI845
g1
((lp2537
I850
aI901
atp2538
Rp2539
sI846
g1
((lp2540
I1160
aI570
aI970
atp2541
Rp2542
sI847
g1
((lp2543
I8
aI1085
atp2544
Rp2545
sI848
g1
((lp2546
I336
aI490
aI53
atp2547
Rp2548
sI849
g1
((lp2549
I560
aI1128
aI50
aI1055
atp2550
Rp2551
sI850
g1
((lp2552
I19
aI845
aI861
atp2553
Rp2554
sI851
g1
((lp2555
I273
aI94
atp2556
Rp2557
sI852
g1
((lp2558
I473
atp2559
Rp2560
sI853
g1
((lp2561
tp2562
Rp2563
sI854
g1
((lp2564
I747
atp2565
Rp2566
sI855
g1
((lp2567
I82
aI774
aI831
atp2568
Rp2569
sI856
g1
((lp2570
tp2571
Rp2572
sI857
g1
((lp2573
I496
aI234
aI821
aI933
atp2574
Rp2575
sI858
g1
((lp2576
I358
atp2577
Rp2578
sI859
g1
((lp2579
I210
aI835
aI44
aI1138
aI231
atp2580
Rp2581
sI860
g1
((lp2582
I1034
atp2583
Rp2584
sI861
g1
((lp2585
I850
atp2586
Rp2587
sI862
g1
((lp2588
I551
aI355
aI590
aI607
atp2589
Rp2590
sI863
g1
((lp2591
I57
aI671
atp2592
Rp2593
sI864
g1
((lp2594
I171
aI612
aI205
aI589
atp2595
Rp2596
sI865
g1
((lp2597
I448
aI931
aI285
atp2598
Rp2599
sI866
g1
((lp2600
I13
aI277
atp2601
Rp2602
sI867
g1
((lp2603
I339
aI1147
aI789
atp2604
Rp2605
sI868
g1
((lp2606
tp2607
Rp2608
sI869
g1
((lp2609
I414
atp2610
Rp2611
sI870
g1
((lp2612
I776
atp2613
Rp2614
sI871
g1
((lp2615
I1120
aI387
atp2616
Rp2617
sI872
g1
((lp2618
I1065
aI684
atp2619
Rp2620
sI873
g1
((lp2621
I1105
aI340
aI174
atp2622
Rp2623
sI874
g1
((lp2624
I122
aI135
aI85
aI359
atp2625
Rp2626
sI875
g1
((lp2627
I449
aI434
aI882
aI695
atp2628
Rp2629
sI876
g1
((lp2630
I881
aI252
aI623
atp2631
Rp2632
sI877
g1
((lp2633
I1216
aI90
aI1027
aI1085
aI1109
atp2634
Rp2635
sI878
g1
((lp2636
I611
aI447
aI583
atp2637
Rp2638
sI879
g1
((lp2639
I8
aI1141
aI1135
atp2640
Rp2641
sI880
g1
((lp2642
tp2643
Rp2644
sI881
g1
((lp2645
I1129
aI427
aI876
aI977
aI310
aI730
aI59
atp2646
Rp2647
sI882
g1
((lp2648
I322
aI515
aI327
aI937
aI875
aI1103
atp2649
Rp2650
sI883
g1
((lp2651
I120
aI464
aI606
aI1041
atp2652
Rp2653
sI884
g1
((lp2654
I561
atp2655
Rp2656
sI885
g1
((lp2657
I11
aI69
aI1067
aI658
aI947
aI635
atp2658
Rp2659
sI886
g1
((lp2660
tp2661
Rp2662
sI887
g1
((lp2663
I1065
aI901
atp2664
Rp2665
sI888
g1
((lp2666
I520
aI163
atp2667
Rp2668
sI889
g1
((lp2669
I1105
atp2670
Rp2671
sI890
g1
((lp2672
I127
aI439
atp2673
Rp2674
sI891
g1
((lp2675
I168
aI913
aI731
aI461
atp2676
Rp2677
sI892
g1
((lp2678
I287
aI201
aI1083
aI725
aI623
atp2679
Rp2680
sI893
g1
((lp2681
I706
atp2682
Rp2683
sI894
g1
((lp2684
tp2685
Rp2686
sI895
g1
((lp2687
I314
aI949
atp2688
Rp2689
sI896
g1
((lp2690
I1007
atp2691
Rp2692
sI897
g1
((lp2693
I207
aI276
aI551
atp2694
Rp2695
sI898
g1
((lp2696
I1012
atp2697
Rp2698
sI899
g1
((lp2699
I1118
atp2700
Rp2701
sI900
g1
((lp2702
I720
aI338
aI1133
aI766
atp2703
Rp2704
sI901
g1
((lp2705
I756
aI845
aI887
atp2706
Rp2707
sI902
g1
((lp2708
I1131
atp2709
Rp2710
sI903
g1
((lp2711
I453
aI749
atp2712
Rp2713
sI904
g1
((lp2714
I82
aI15
atp2715
Rp2716
sI905
g1
((lp2717
I1100
aI1204
atp2718
Rp2719
sI906
g1
((lp2720
I266
aI755
aI402
aI367
atp2721
Rp2722
sI907
g1
((lp2723
I378
atp2724
Rp2725
sI908
g1
((lp2726
I426
aI1203
atp2727
Rp2728
sI909
g1
((lp2729
I433
atp2730
Rp2731
sI910
g1
((lp2732
I840
aI347
aI926
atp2733
Rp2734
sI911
g1
((lp2735
I649
aI1188
aI772
atp2736
Rp2737
sI912
g1
((lp2738
I650
aI1052
atp2739
Rp2740
sI913
g1
((lp2741
I891
aI53
aI957
atp2742
Rp2743
sI914
g1
((lp2744
I1046
atp2745
Rp2746
sI915
g1
((lp2747
I110
atp2748
Rp2749
sI916
g1
((lp2750
I640
aI523
aI333
aI1037
atp2751
Rp2752
sI917
g1
((lp2753
I39
aI114
aI239
aI207
atp2754
Rp2755
sI918
g1
((lp2756
I1080
aI1126
atp2757
Rp2758
sI919
g1
((lp2759
I552
aI336
aI1016
atp2760
Rp2761
sI920
g1
((lp2762
I41
aI145
atp2763
Rp2764
sI921
g1
((lp2765
I73
aI85
atp2766
Rp2767
sI922
g1
((lp2768
I512
aI1064
aI373
atp2769
Rp2770
sI923
g1
((lp2771
I420
atp2772
Rp2773
sI924
g1
((lp2774
tp2775
Rp2776
sI925
g1
((lp2777
I320
aI171
aI1087
atp2778
Rp2779
sI926
g1
((lp2780
I476
aI572
aI677
aI910
atp2781
Rp2782
sI927
g1
((lp2783
I83
atp2784
Rp2785
sI928
g1
((lp2786
I73
aI1011
aI654
atp2787
Rp2788
sI929
g1
((lp2789
I440
aI300
aI557
aI63
atp2790
Rp2791
sI930
g1
((lp2792
I392
aI1081
aI701
atp2793
Rp2794
sI931
g1
((lp2795
I865
aI150
atp2796
Rp2797
sI932
g1
((lp2798
I1172
atp2799
Rp2800
sI933
g1
((lp2801
I857
atp2802
Rp2803
sI934
g1
((lp2804
I362
aI1005
atp2805
Rp2806
sI935
g1
((lp2807
I72
aI148
aI324
atp2808
Rp2809
sI936
g1
((lp2810
I423
atp2811
Rp2812
sI937
g1
((lp2813
I648
aI882
aI950
atp2814
Rp2815
sI938
g1
((lp2816
I1081
aI1124
atp2817
Rp2818
sI939
g1
((lp2819
I288
aI1035
aI403
aI831
atp2820
Rp2821
sI940
g1
((lp2822
I801
aI515
aI830
aI1190
aI479
atp2823
Rp2824
sI941
g1
((lp2825
tp2826
Rp2827
sI942
g1
((lp2828
I978
aI782
atp2829
Rp2830
sI943
g1
((lp2831
I64
aI392
aI172
aI1233
atp2832
Rp2833
sI944
g1
((lp2834
I1129
aI538
aI1203
atp2835
Rp2836
sI945
g1
((lp2837
I756
aI53
aI230
aI615
atp2838
Rp2839
sI946
g1
((lp2840
I282
aI52
aI557
atp2841
Rp2842
sI947
g1
((lp2843
I1002
aI885
aI335
atp2844
Rp2845
sI948
g1
((lp2846
I1072
aI564
atp2847
Rp2848
sI949
g1
((lp2849
I252
aI1038
aI895
atp2850
Rp2851
sI950
g1
((lp2852
I937
aI116
aI525
atp2853
Rp2854
sI951
g1
((lp2855
I385
aI803
atp2856
Rp2857
sI952
g1
((lp2858
I138
aI1164
aI262
aI591
atp2859
Rp2860
sI953
g1
((lp2861
I381
aI653
atp2862
Rp2863
sI954
g1
((lp2864
I352
aI841
atp2865
Rp2866
sI955
g1
((lp2867
tp2868
Rp2869
sI956
g1
((lp2870
I3
aI309
atp2871
Rp2872
sI957
g1
((lp2873
I913
atp2874
Rp2875
sI958
g1
((lp2876
I556
aI612
atp2877
Rp2878
sI959
g1
((lp2879
I139
aI284
aI1219
atp2880
Rp2881
sI960
g1
((lp2882
I1040
aI458
aI643
aI590
atp2883
Rp2884
sI961
g1
((lp2885
I377
atp2886
Rp2887
sI962
g1
((lp2888
I586
atp2889
Rp2890
sI963
g1
((lp2891
I1043
aI755
atp2892
Rp2893
sI964
g1
((lp2894
tp2895
Rp2896
sI965
g1
((lp2897
I673
aI274
aI478
atp2898
Rp2899
sI966
g1
((lp2900
I1156
aI349
aI1214
atp2901
Rp2902
sI967
g1
((lp2903
I825
aI131
aI580
atp2904
Rp2905
sI968
g1
((lp2906
I1201
aI226
aI830
atp2907
Rp2908
sI969
g1
((lp2909
I601
aI1052
atp2910
Rp2911
sI970
g1
((lp2912
I154
aI846
atp2913
Rp2914
sI971
g1
((lp2915
I346
aI549
aI1175
atp2916
Rp2917
sI972
g1
((lp2918
I267
atp2919
Rp2920
sI973
g1
((lp2921
I544
aI449
aI1210
atp2922
Rp2923
sI974
g1
((lp2924
I570
aI499
aI1037
atp2925
Rp2926
sI975
g1
((lp2927
I625
aI283
aI500
aI181
aI59
atp2928
Rp2929
sI976
g1
((lp2930
I562
aI1066
atp2931
Rp2932
sI977
g1
((lp2933
I881
aI559
atp2934
Rp2935
sI978
g1
((lp2936
I942
atp2937
Rp2938
sI979
g1
((lp2939
I162
aI323
atp2940
Rp2941
sI980
g1
((lp2942
tp2943
Rp2944
sI981
g1
((lp2945
I327
aI1045
aI302
aI325
atp2946
Rp2947
sI982
g1
((lp2948
tp2949
Rp2950
sI983
g1
((lp2951
I1201
atp2952
Rp2953
sI984
g1
((lp2954
I385
aI252
atp2955
Rp2956
sI985
g1
((lp2957
I211
aI392
aI618
aI307
aI21
aI572
atp2958
Rp2959
sI986
g1
((lp2960
I50
aI1090
atp2961
Rp2962
sI987
g1
((lp2963
I1138
aI47
atp2964
Rp2965
sI988
g1
((lp2966
I1025
aI530
aI1091
aI228
atp2967
Rp2968
sI989
g1
((lp2969
I623
atp2970
Rp2971
sI990
g1
((lp2972
tp2973
Rp2974
sI991
g1
((lp2975
I122
atp2976
Rp2977
sI992
g1
((lp2978
I622
atp2979
Rp2980
sI993
g1
((lp2981
I1098
aI747
aI660
atp2982
Rp2983
sI994
g1
((lp2984
I1106
atp2985
Rp2986
sI995
g1
((lp2987
I309
aI774
atp2988
Rp2989
sI996
g1
((lp2990
I1075
aI420
atp2991
Rp2992
sI997
g1
((lp2993
I572
atp2994
Rp2995
sI998
g1
((lp2996
I331
atp2997
Rp2998
sI999
g1
((lp2999
I728
aI787
aI29
aI475
aI567
atp3000
Rp3001
sI1000
g1
((lp3002
I257
atp3003
Rp3004
sI1001
g1
((lp3005
I729
aI522
aI1079
atp3006
Rp3007
sI1002
g1
((lp3008
I947
aI187
aI814
aI285
atp3009
Rp3010
sI1003
g1
((lp3011
I1155
aI486
aI7
aI1133
aI207
aI496
atp3012
Rp3013
sI1004
g1
((lp3014
I1096
aI154
aI1109
atp3015
Rp3016
sI1005
g1
((lp3017
I934
atp3018
Rp3019
sI1006
g1
((lp3020
I802
aI511
atp3021
Rp3022
sI1007
g1
((lp3023
I896
aI636
atp3024
Rp3025
sI1008
g1
((lp3026
I320
aI427
atp3027
Rp3028
sI1009
g1
((lp3029
tp3030
Rp3031
sI1010
g1
((lp3032
I792
aI709
aI223
aI1229
aI1223
atp3033
Rp3034
sI1011
g1
((lp3035
I928
atp3036
Rp3037
sI1012
g1
((lp3038
I898
aI812
atp3039
Rp3040
sI1013
g1
((lp3041
tp3042
Rp3043
sI1014
g1
((lp3044
tp3045
Rp3046
sI1015
g1
((lp3047
I88
aI617
aI138
aI619
aI797
atp3048
Rp3049
sI1016
g1
((lp3050
I1115
aI284
aI919
aI127
atp3051
Rp3052
sI1017
g1
((lp3053
I240
aI539
aI652
aI405
aI1127
atp3054
Rp3055
sI1018
g1
((lp3056
I1051
aI1238
atp3057
Rp3058
sI1019
g1
((lp3059
I364
atp3060
Rp3061
sI1020
g1
((lp3062
tp3063
Rp3064
sI1021
g1
((lp3065
I184
aI1179
aI445
aI454
atp3066
Rp3067
sI1022
g1
((lp3068
I578
aI1163
aI644
aI661
atp3069
Rp3070
sI1023
g1
((lp3071
I176
aI385
aI507
aI396
atp3072
Rp3073
sI1024
g1
((lp3074
I398
atp3075
Rp3076
sI1025
g1
((lp3077
I988
atp3078
Rp3079
sI1026
g1
((lp3080
I129
aI691
aI348
aI1197
atp3081
Rp3082
sI1027
g1
((lp3083
I877
atp3084
Rp3085
sI1028
g1
((lp3086
I533
aI766
aI783
atp3087
Rp3088
sI1029
g1
((lp3089
I587
atp3090
Rp3091
sI1030
g1
((lp3092
I427
aI1127
atp3093
Rp3094
sI1031
g1
((lp3095
I88
aI115
aI451
atp3096
Rp3097
sI1032
g1
((lp3098
I504
aI338
aI1150
atp3099
Rp3100
sI1033
g1
((lp3101
I24
aI708
atp3102
Rp3103
sI1034
g1
((lp3104
I1146
aI779
aI860
aI1102
aI175
atp3105
Rp3106
sI1035
g1
((lp3107
I939
aI95
atp3108
Rp3109
sI1036
g1
((lp3110
I643
aI247
aI237
aI658
aI631
aI537
aI253
atp3111
Rp3112
sI1037
g1
((lp3113
I682
aI83
aI916
aI974
atp3114
Rp3115
sI1038
g1
((lp3116
I616
aI1200
aI715
aI949
aI295
atp3117
Rp3118
sI1039
g1
((lp3119
I641
atp3120
Rp3121
sI1040
g1
((lp3122
I960
aI214
aI650
aI1196
aI149
aI54
atp3123
Rp3124
sI1041
g1
((lp3125
I457
aI883
atp3126
Rp3127
sI1042
g1
((lp3128
I1145
aI98
atp3129
Rp3130
sI1043
g1
((lp3131
I963
aI235
atp3132
Rp3133
sI1044
g1
((lp3134
I448
aI714
aI628
atp3135
Rp3136
sI1045
g1
((lp3137
I203
aI981
atp3138
Rp3139
sI1046
g1
((lp3140
I914
aI244
atp3141
Rp3142
sI1047
g1
((lp3143
I352
aI144
aI247
aI216
aI575
atp3144
Rp3145
sI1048
g1
((lp3146
I9
aI780
atp3147
Rp3148
sI1049
g1
((lp3149
I639
atp3150
Rp3151
sI1050
g1
((lp3152
I547
aI686
atp3153
Rp3154
sI1051
g1
((lp3155
I1018
aI387
atp3156
Rp3157
sI1052
g1
((lp3158
I912
aI808
aI651
aI969
atp3159
Rp3160
sI1053
g1
((lp3161
I1068
aI46
atp3162
Rp3163
sI1054
g1
((lp3164
I720
aI494
atp3165
Rp3166
sI1055
g1
((lp3167
I288
aI849
atp3168
Rp3169
sI1056
g1
((lp3170
I352
aI118
atp3171
Rp3172
sI1057
g1
((lp3173
I1148
atp3174
Rp3175
sI1058
g1
((lp3176
tp3177
Rp3178
sI1059
g1
((lp3179
I264
aI330
aI93
aI1141
atp3180
Rp3181
sI1060
g1
((lp3182
I1164
aI85
aI493
atp3183
Rp3184
sI1061
g1
((lp3185
I514
aI1122
aI751
atp3186
Rp3187
sI1062
g1
((lp3188
tp3189
Rp3190
sI1063
g1
((lp3191
I434
aI58
aI829
atp3192
Rp3193
sI1064
g1
((lp3194
I560
aI922
aI61
aI717
atp3195
Rp3196
sI1065
g1
((lp3197
I481
aI642
aI872
aI114
aI179
aI887
atp3198
Rp3199
sI1066
g1
((lp3200
I976
aI267
aI372
aI683
aI741
atp3201
Rp3202
sI1067
g1
((lp3203
I1098
aI1116
aI885
atp3204
Rp3205
sI1068
g1
((lp3206
I653
aI693
aI1053
aI678
aI1127
atp3207
Rp3208
sI1069
g1
((lp3209
tp3210
Rp3211
sI1070
g1
((lp3212
I506
aI1124
aI586
aI255
atp3213
Rp3214
sI1071
g1
((lp3215
I1149
aI718
atp3216
Rp3217
sI1072
g1
((lp3218
I754
aI948
aI790
atp3219
Rp3220
sI1073
g1
((lp3221
I485
atp3222
Rp3223
sI1074
g1
((lp3224
tp3225
Rp3226
sI1075
g1
((lp3227
I1202
aI996
aI149
atp3228
Rp3229
sI1076
g1
((lp3230
I147
atp3231
Rp3232
sI1077
g1
((lp3233
I221
aI270
atp3234
Rp3235
sI1078
g1
((lp3236
I1197
atp3237
Rp3238
sI1079
g1
((lp3239
I1001
aI410
aI134
aI615
atp3240
Rp3241
sI1080
g1
((lp3242
I265
aI918
atp3243
Rp3244
sI1081
g1
((lp3245
I930
aI219
aI938
aI1174
atp3246
Rp3247
sI1082
g1
((lp3248
I1
aI747
atp3249
Rp3250
sI1083
g1
((lp3251
I892
aI724
aI1129
atp3252
Rp3253
sI1084
g1
((lp3254
I394
aI452
aI1154
atp3255
Rp3256
sI1085
g1
((lp3257
I268
aI877
aI847
atp3258
Rp3259
sI1086
g1
((lp3260
I241
aI500
atp3261
Rp3262
sI1087
g1
((lp3263
I925
aI838
atp3264
Rp3265
sI1088
g1
((lp3266
I304
aI796
aI79
atp3267
Rp3268
sI1089
g1
((lp3269
I163
atp3270
Rp3271
sI1090
g1
((lp3272
I521
aI986
atp3273
Rp3274
sI1091
g1
((lp3275
I826
aI988
atp3276
Rp3277
sI1092
g1
((lp3278
I631
aI764
aI559
atp3279
Rp3280
sI1093
g1
((lp3281
I1121
atp3282
Rp3283
sI1094
g1
((lp3284
I169
aI252
atp3285
Rp3286
sI1095
g1
((lp3287
I385
aI551
atp3288
Rp3289
sI1096
g1
((lp3290
I408
aI713
aI1004
aI69
aI1141
atp3291
Rp3292
sI1097
g1
((lp3293
tp3294
Rp3295
sI1098
g1
((lp3296
I993
aI331
aI1067
atp3297
Rp3298
sI1099
g1
((lp3299
I1131
aI101
atp3300
Rp3301
sI1100
g1
((lp3302
I272
aI905
atp3303
Rp3304
sI1101
g1
((lp3305
I815
atp3306
Rp3307
sI1102
g1
((lp3308
I1034
atp3309
Rp3310
sI1103
g1
((lp3311
I610
aI676
aI882
atp3312
Rp3313
sI1104
g1
((lp3314
I26
aI666
atp3315
Rp3316
sI1105
g1
((lp3317
I873
aI126
aI889
atp3318
Rp3319
sI1106
g1
((lp3320
I994
atp3321
Rp3322
sI1107
g1
((lp3323
I1158
atp3324
Rp3325
sI1108
g1
((lp3326
I42
aI347
atp3327
Rp3328
sI1109
g1
((lp3329
I92
aI1004
aI877
aI737
atp3330
Rp3331
sI1110
g1
((lp3332
tp3333
Rp3334
sI1111
g1
((lp3335
I257
aI466
aI15
aI521
atp3336
Rp3337
sI1112
g1
((lp3338
I145
aI794
aI260
atp3339
Rp3340
sI1113
g1
((lp3341
I584
aI619
atp3342
Rp3343
sI1114
g1
((lp3344
I597
atp3345
Rp3346
sI1115
g1
((lp3347
I1016
atp3348
Rp3349
sI1116
g1
((lp3350
I1067
aI716
aI295
atp3351
Rp3352
sI1117
g1
((lp3353
I1162
aI212
atp3354
Rp3355
sI1118
g1
((lp3356
I522
aI899
atp3357
Rp3358
sI1119
g1
((lp3359
I160
aI1233
atp3360
Rp3361
sI1120
g1
((lp3362
I871
aI175
aI519
atp3363
Rp3364
sI1121
g1
((lp3365
I770
aI1093
aI648
aI1194
aI276
aI437
atp3366
Rp3367
sI1122
g1
((lp3368
I709
aI304
aI626
aI115
aI116
aI1061
atp3369
Rp3370
sI1123
g1
((lp3371
tp3372
Rp3373
sI1124
g1
((lp3374
I737
aI938
aI1149
aI1070
atp3375
Rp3376
sI1125
g1
((lp3377
I436
aI789
atp3378
Rp3379
sI1126
g1
((lp3380
I835
aI325
aI327
aI259
aI643
aI918
atp3381
Rp3382
sI1127
g1
((lp3383
I1017
aI1068
aI1030
atp3384
Rp3385
sI1128
g1
((lp3386
I529
aI143
aI849
atp3387
Rp3388
sI1129
g1
((lp3389
I944
aI787
aI1083
aI881
atp3390
Rp3391
sI1130
g1
((lp3392
I369
atp3393
Rp3394
sI1131
g1
((lp3395
I33
aI1099
aI902
atp3396
Rp3397
sI1132
g1
((lp3398
I438
atp3399
Rp3400
sI1133
g1
((lp3401
I819
aI900
aI1003
atp3402
Rp3403
sI1134
g1
((lp3404
I250
atp3405
Rp3406
sI1135
g1
((lp3407
I395
aI773
aI879
atp3408
Rp3409
sI1136
g1
((lp3410
I368
aI632
aI491
aI630
atp3411
Rp3412
sI1137
g1
((lp3413
I273
atp3414
Rp3415
sI1138
g1
((lp3416
I859
aI987
atp3417
Rp3418
sI1139
g1
((lp3419
I35
atp3420
Rp3421
sI1140
g1
((lp3422
I413
aI502
aI1198
atp3423
Rp3424
sI1141
g1
((lp3425
I1096
aI1059
aI879
atp3426
Rp3427
sI1142
g1
((lp3428
I755
aI380
atp3429
Rp3430
sI1143
g1
((lp3431
I412
aI725
atp3432
Rp3433
sI1144
g1
((lp3434
I402
aI490
atp3435
Rp3436
sI1145
g1
((lp3437
I73
aI1042
atp3438
Rp3439
sI1146
g1
((lp3440
I112
aI1034
aI195
aI10
atp3441
Rp3442
sI1147
g1
((lp3443
I867
aI279
atp3444
Rp3445
sI1148
g1
((lp3446
I1057
atp3447
Rp3448
sI1149
g1
((lp3449
I1071
aI1124
aI239
atp3450
Rp3451
sI1150
g1
((lp3452
I1032
aI1209
aI1155
atp3453
Rp3454
sI1151
g1
((lp3455
I427
aI395
aI821
aI550
atp3456
Rp3457
sI1152
g1
((lp3458
I49
aI260
aI14
aI342
atp3459
Rp3460
sI1153
g1
((lp3461
I208
aI801
aI407
aI1167
atp3462
Rp3463
sI1154
g1
((lp3464
I244
aI1084
atp3465
Rp3466
sI1155
g1
((lp3467
I1003
aI1164
aI1150
atp3468
Rp3469
sI1156
g1
((lp3470
I966
atp3471
Rp3472
sI1157
g1
((lp3473
tp3474
Rp3475
sI1158
g1
((lp3476
I128
aI1107
atp3477
Rp3478
sI1159
g1
((lp3479
I339
aI572
atp3480
Rp3481
sI1160
g1
((lp3482
I480
aI846
aI343
atp3483
Rp3484
sI1161
g1
((lp3485
I1196
atp3486
Rp3487
sI1162
g1
((lp3488
I786
aI1117
atp3489
Rp3490
sI1163
g1
((lp3491
I755
aI246
aI1022
atp3492
Rp3493
sI1164
g1
((lp3494
I952
aI691
aI1060
aI1155
atp3495
Rp3496
sI1165
g1
((lp3497
tp3498
Rp3499
sI1166
g1
((lp3500
I240
aI547
aI435
aI701
atp3501
Rp3502
sI1167
g1
((lp3503
I264
aI1153
aI178
aI226
atp3504
Rp3505
sI1168
g1
((lp3506
tp3507
Rp3508
sI1169
g1
((lp3509
I237
atp3510
Rp3511
sI1170
g1
((lp3512
I145
aI60
aI638
aI1206
atp3513
Rp3514
sI1171
g1
((lp3515
tp3516
Rp3517
sI1172
g1
((lp3518
I932
atp3519
Rp3520
sI1173
g1
((lp3521
tp3522
Rp3523
sI1174
g1
((lp3524
I1081
atp3525
Rp3526
sI1175
g1
((lp3527
I1235
aI776
aI971
aI563
aI468
aI122
atp3528
Rp3529
sI1176
g1
((lp3530
I544
aI324
aI550
aI598
atp3531
Rp3532
sI1177
g1
((lp3533
I637
aI30
atp3534
Rp3535
sI1178
g1
((lp3536
I1217
aI812
atp3537
Rp3538
sI1179
g1
((lp3539
I768
aI1021
aI151
atp3540
Rp3541
sI1180
g1
((lp3542
I451
aI566
atp3543
Rp3544
sI1181
g1
((lp3545
I538
atp3546
Rp3547
sI1182
g1
((lp3548
I689
aI106
atp3549
Rp3550
sI1183
g1
((lp3551
tp3552
Rp3553
sI1184
g1
((lp3554
I336
aI784
aI79
atp3555
Rp3556
sI1185
g1
((lp3557
I257
atp3558
Rp3559
sI1186
g1
((lp3560
I546
aI622
atp3561
Rp3562
sI1187
g1
((lp3563
I504
aI305
aI1236
aI385
atp3564
Rp3565
sI1188
g1
((lp3566
I520
aI1209
aI911
atp3567
Rp3568
sI1189
g1
((lp3569
I416
aI418
aI573
aI7
atp3570
Rp3571
sI1190
g1
((lp3572
I458
aI139
aI940
aI239
aI729
aI285
atp3573
Rp3574
sI1191
g1
((lp3575
tp3576
Rp3577
sI1192
g1
((lp3578
I687
atp3579
Rp3580
sI1193
g1
((lp3581
I178
atp3582
Rp3583
sI1194
g1
((lp3584
I176
aI1121
aI139
aI605
aI557
atp3585
Rp3586
sI1195
g1
((lp3587
I442
aI147
aI255
atp3588
Rp3589
sI1196
g1
((lp3590
I1040
aI1161
atp3591
Rp3592
sI1197
g1
((lp3593
I321
aI1026
aI1078
atp3594
Rp3595
sI1198
g1
((lp3596
I1140
aI476
atp3597
Rp3598
sI1199
g1
((lp3599
I46
atp3600
Rp3601
sI1200
g1
((lp3602
I393
aI1038
aI489
atp3603
Rp3604
sI1201
g1
((lp3605
I968
aI983
atp3606
Rp3607
sI1202
g1
((lp3608
I1075
atp3609
Rp3610
sI1203
g1
((lp3611
I944
aI908
aI725
atp3612
Rp3613
sI1204
g1
((lp3614
I521
aI243
aI905
atp3615
Rp3616
sI1205
g1
((lp3617
I297
aI570
aI174
atp3618
Rp3619
sI1206
g1
((lp3620
I834
aI811
aI1170
aI1214
atp3621
Rp3622
sI1207
g1
((lp3623
tp3624
Rp3625
sI1208
g1
((lp3626
I112
aI218
aI259
aI629
atp3627
Rp3628
sI1209
g1
((lp3629
I1188
aI1150
aI767
atp3630
Rp3631
sI1210
g1
((lp3632
I167
aI525
aI973
aI583
atp3633
Rp3634
sI1211
g1
((lp3635
I378
aI1213
aI383
atp3636
Rp3637
sI1212
g1
((lp3638
tp3639
Rp3640
sI1213
g1
((lp3641
I1211
aI431
atp3642
Rp3643
sI1214
g1
((lp3644
I229
aI966
aI1206
atp3645
Rp3646
sI1215
g1
((lp3647
I195
aI76
atp3648
Rp3649
sI1216
g1
((lp3650
I584
aI660
aI877
atp3651
Rp3652
sI1217
g1
((lp3653
I344
aI1178
atp3654
Rp3655
sI1218
g1
((lp3656
I9
aI567
atp3657
Rp3658
sI1219
g1
((lp3659
I158
aI959
atp3660
Rp3661
sI1220
g1
((lp3662
I683
atp3663
Rp3664
sI1221
g1
((lp3665
tp3666
Rp3667
sI1222
g1
((lp3668
I48
aI289
aI83
aI750
aI167
atp3669
Rp3670
sI1223
g1
((lp3671
I1010
aI44
aI117
aI198
aI702
atp3672
Rp3673
sI1224
g1
((lp3674
I785
aI10
aI269
aI374
aI397
atp3675
Rp3676
sI1225
g1
((lp3677
I608
atp3678
Rp3679
sI1226
g1
((lp3680
tp3681
Rp3682
sI1227
g1
((lp3683
I374
atp3684
Rp3685
sI1228
g1
((lp3686
I334
atp3687
Rp3688
sI1229
g1
((lp3689
I1010
aI356
aI311
atp3690
Rp3691
sI1230
g1
((lp3692
I121
aI729
aI511
atp3693
Rp3694
sI1231
g1
((lp3695
I661
aI182
atp3696
Rp3697
sI1232
g1
((lp3698
I404
aI191
atp3699
Rp3700
sI1233
g1
((lp3701
I425
aI1119
aI943
atp3702
Rp3703
sI1234
g1
((lp3704
tp3705
Rp3706
sI1235
g1
((lp3707
I1175
aI829
aI813
atp3708
Rp3709
sI1236
g1
((lp3710
I456
aI370
aI1187
aI773
atp3711
Rp3712
sI1237
g1
((lp3713
I150
atp3714
Rp3715
sI1238
g1
((lp3716
I1018
aI486
atp3717
Rp3718
s.