(lp0
F0.0
aF0.00014999866485595703
aF0.00016000032424926759
aF0.00031000137329101563
aF0.0003099989891052246
aF0.00046999931335449217
aF0.00046999931335449217
aF0.0007800006866455078
aF0.0009299993515014648
aF0.0010899996757507324
aF0.00125
aF0.0015600013732910156
aF0.0017100000381469727
aF0.002029998302459717
aF0.002180001735687256
aF0.0025
aF0.0026600003242492677
aF0.00312000036239624
aF0.0034299993515014646
aF0.0035899996757507322
aF0.003899998664855957
aF0.00437000036239624
aF0.004679999351501465
aF0.004990000724792481
aF0.0056100010871887205
aF0.005950000286102295
aF0.006399998664855957
aF0.00687000036239624
aF0.007330000400543213
aF0.007819998264312743
aF0.008269999027252197
aF0.00874000072479248
aF0.009210000038146973
aF0.009830000400543213
aF0.010789999961853028
aF0.011240000724792481
aF0.01186000108718872
aF0.01249000072479248
aF0.013140001296997071
aF0.013889999389648437
aF0.01437000036239624
aF0.01509000062942505
aF0.015909998416900634
aF0.016380000114440917
aF0.017160000801086425
aF0.017940001487731935
aF0.01871999979019165
aF0.019500000476837157
aF0.020350000858306884
aF0.02108000040054321
aF0.02202000141143799
aF0.022619998455047606
aF0.023559999465942384
aF0.02432999849319458
aF0.025110001564025878
aF0.025909998416900636
aF0.027309999465942383
aF0.027760000228881837
aF0.02869999885559082
aF0.029639999866485595
aF0.03075000047683716
aF0.031570000648498533
aF0.03260999917984009
aF0.03354000091552734
aF0.03462999820709228
aF0.03559000015258789
aF0.03634999990463257
aF0.03729999780654907
aF0.03871999979019165
aF0.03996999979019165
aF0.04075000047683716
aF0.04197000026702881
aF0.04321000099182129
aF0.044170000553131104
aF0.04554999828338623
aF0.04664000034332275
aF0.04780999898910523
aF0.049260001182556155
aF0.05069999933242798
aF0.051790001392364504
aF0.05306999921798706
aF0.0542900013923645
aF0.05561000108718872
aF0.0573199987411499
aF0.05834999799728394
aF0.059300000667572024
aF0.0613100004196167
aF0.06322999954223633
aF0.06416000127792358
aF0.06478000164031983
aF0.06651000022888183
aF0.06802000045776367
aF0.06944000005722045
aF0.07082000017166137
aF0.07223000049591065
aF0.07367000102996826
aF0.07492999792098999
aF0.0763100004196167
aF0.07830999851226807
a.