(dp0
I0
c__builtin__
set
p1
((lp2
I1
aI2
aI3
aI4
aI5
aI7
aI9
aI10
aI12
aI14
aI259
aI217
aI24
aI1028
aI29
aI30
aI32
aI546
aI36
aI1061
aI295
aI554
aI812
aI304
aI49
aI308
aI57
aI58
aI316
aI62
aI949
aI832
aI70
aI292
aI72
aI73
aI75
aI1105
aI84
aI1113
aI90
aI826
aI95
aI1121
aI98
aI100
aI613
aI358
aI1084
aI618
aI636
aI362
aI126
aI391
aI403
aI663
aI409
aI922
aI169
aI682
aI125
aI432
aI693
aI696
aI708
aI197
aI711
aI970
aI305
aI719
aI211
aI214
aI985
aI1126
aI737
aI484
aI745
aI551
aI495
aI240
aI1012
aI638
aI250
atp3
Rp4
sI1
g1
((lp5
I0
aI513
aI2
aI3
aI4
aI5
aI6
aI264
aI777
aI266
aI11
aI14
aI15
aI16
aI18
aI22
aI24
aI281
aI28
aI542
aI31
aI176
aI40
aI41
aI42
aI557
aI306
aI51
aI52
aI59
aI1090
aI325
aI70
aI76
aI334
aI782
aI96
aI102
aI1130
aI366
aI111
aI369
aI626
aI116
aI375
aI377
aI890
aI126
aI128
aI897
aI395
aI1165
aI145
aI146
aI150
aI155
aI930
aI923
aI1190
aI122
aI432
aI442
aI287
aI956
aI1038
aI1021
aI221
aI992
aI740
aI1003
aI237
aI751
aI502
aI247
aI509
aI85
aI1109
atp6
Rp7
sI2
g1
((lp8
I0
aI1
aI3
aI4
aI982
aI134
aI8
aI1162
aI11
aI524
aI13
aI1038
aI1039
aI16
aI17
aI148
aI1047
aI794
aI184
aI28
aI29
aI674
aI35
aI549
aI166
aI1192
aI425
aI943
aI566
aI312
aI185
aI701
aI830
aI68
aI12
aI74
aI337
aI82
aI595
aI726
aI953
aI601
aI656
aI145
aI105
aI1138
aI788
aI251
atp9
Rp10
sI3
g1
((lp11
I0
aI1
aI2
aI4
aI6
aI7
aI9
aI10
aI523
aI15
aI18
aI1045
aI1048
aI26
aI27
aI799
aI802
aI36
aI262
aI44
aI49
aI51
aI1033
aI312
aI58
aI64
aI66
aI1091
aI1097
aI440
aI83
aI84
aI185
aI345
aI90
aI570
aI1124
aI1127
aI530
aI367
aI886
aI119
aI720
aI1149
aI895
aI385
aI643
aI133
aI142
aI1167
aI401
aI150
aI156
aI926
aI161
aI932
aI168
aI426
aI1195
aI173
aI434
aI694
aI696
aI441
aI195
aI964
aI976
aI724
aI474
aI221
aI464
aI231
aI493
aI494
aI340
aI509
atp12
Rp13
sI4
g1
((lp14
I0
aI1
aI2
aI3
aI6
aI7
aI520
aI12
aI13
aI271
aI17
aI19
aI27
aI796
aI542
aI288
aI289
aI1058
aI35
aI806
aI42
aI45
aI46
aI47
aI1072
aI1073
aI50
aI565
aI57
aI572
aI1162
aI579
aI1098
aI333
aI1105
aI600
aI603
aI862
aI352
aI610
aI1125
aI872
aI108
aI880
aI116
aI1112
aI377
aI893
aI896
aI138
aI144
aI1172
aI149
aI150
aI152
aI153
aI1193
aI171
aI429
aI185
aI190
aI191
aI34
aI984
aI226
aI748
aI1149
aI1017
aI1020
atp15
Rp16
sI5
g1
((lp17
I0
aI1
aI8
aI9
aI66
aI270
aI788
aI21
aI25
aI31
aI33
aI802
aI805
aI40
aI557
aI302
aI175
aI48
aI904
aI58
aI1214
aI447
aI64
aI834
aI327
aI463
aI342
aI591
aI475
aI349
aI97
aI484
aI870
aI374
aI916
aI252
atp18
Rp19
sI6
g1
((lp20
I1
aI450
aI3
aI4
aI136
aI141
aI847
aI16
aI529
aI707
aI1044
aI279
aI217
aI1054
aI928
aI481
aI357
aI614
aI171
aI172
aI47
aI19
aI528
aI376
aI1172
aI251
aI188
aI120
aI191
atp21
Rp22
sI7
g1
((lp23
I0
aI3
aI4
aI135
aI8
aI777
aI138
aI11
aI14
aI19
aI20
aI23
aI1049
aI32
aI418
aI38
aI50
aI435
aI821
aI438
aI1080
aI314
aI65
aI964
aI72
aI843
aI333
aI1230
aI975
aI852
aI398
aI605
aI106
aI365
aI751
aI497
aI1014
aI771
aI404
aI124
atp24
Rp25
sI8
g1
((lp26
I192
aI2
aI5
aI134
aI7
aI1161
aI194
aI142
aI338
aI220
aI33
aI678
aI742
aI92
aI245
aI54
aI1121
aI38
atp27
Rp28
sI9
g1
((lp29
I0
aI3
aI5
aI73
aI1162
aI203
aI18
aI22
aI281
aI411
aI284
aI378
aI31
aI737
aI229
aI869
aI166
aI682
aI46
aI311
aI250
atp30
Rp31
sI10
g1
((lp32
I0
aI3
aI77
aI1106
aI323
aI341
aI536
aI540
aI93
aI30
aI165
aI102
aI680
aI28
aI493
aI178
aI501
aI118
aI1173
atp33
Rp34
sI11
g1
((lp35
I320
aI1
aI2
aI7
aI906
aI143
aI401
aI82
aI212
aI173
aI1178
aI159
aI37
aI295
aI427
aI338
aI1198
aI627
aI53
aI933
atp36
Rp37
sI12
g1
((lp38
I0
aI64
aI2
aI4
aI262
aI200
aI44
aI76
aI386
aI15
aI17
aI661
aI278
aI279
aI966
aI452
aI795
aI732
aI291
aI37
aI1062
aI167
aI1088
aI43
aI940
aI1032
aI627
aI54
aI249
aI447
aI192
aI1087
atp39
Rp40
sI13
g1
((lp41
I448
aI2
aI4
aI450
aI656
aI81
aI467
aI87
aI541
aI1118
aI80
aI99
aI804
aI39
aI1067
aI743
aI752
aI829
atp42
Rp43
sI14
g1
((lp44
I0
aI1
aI1029
aI7
aI364
aI779
aI876
aI109
aI609
aI729
aI91
aI189
aI63
atp45
Rp46
sI15
g1
((lp47
I1
aI3
aI836
aI582
aI198
aI204
aI651
aI428
aI12
aI248
atp48
Rp49
sI16
g1
((lp50
I1
aI2
aI67
aI6
aI905
aI974
aI1173
aI730
aI27
aI988
aI114
aI1126
aI40
aI297
aI44
aI621
aI238
aI498
aI119
aI187
aI62
atp51
Rp52
sI17
g1
((lp53
I2
aI771
aI4
aI390
aI775
aI267
aI12
aI910
aI146
aI20
aI665
aI154
aI1051
aI794
aI543
aI560
aI36
aI166
aI689
aI552
aI48
aI817
aI436
aI53
aI445
aI704
aI195
aI974
aI207
aI209
aI88
aI348
aI934
aI871
aI749
aI765
aI127
atp54
Rp55
sI18
g1
((lp56
I1
aI738
aI3
aI9
aI842
aI402
aI179
aI20
aI952
aI803
atp57
Rp58
sI19
g1
((lp59
I129
aI43
aI4
aI6
aI7
aI77
aI208
aI21
aI151
aI24
aI25
aI927
aI96
aI290
aI35
aI358
aI553
aI135
aI364
aI47
aI49
aI563
aI245
aI118
aI503
aI59
atp60
Rp61
sI20
g1
((lp62
I768
aI259
aI7
aI520
aI140
aI655
aI17
aI18
aI515
aI407
aI25
aI155
aI798
aI1051
aI41
aI1196
aI301
aI51
aI695
aI57
aI955
aI835
aI199
aI584
aI330
aI1228
aI465
aI86
aI87
aI347
aI605
aI224
aI227
aI1001
aI619
aI242
aI244
aI187
aI376
aI382
atp63
Rp64
sI21
g1
((lp65
I779
aI5
aI139
aI848
aI658
aI19
aI919
aI956
aI540
aI30
aI1056
aI289
aI587
aI676
aI37
aI80
aI425
aI299
aI365
aI1007
aI851
aI350
aI56
aI60
aI765
atp66
Rp67
sI22
g1
((lp68
I224
aI1
aI147
aI1204
aI9
aI75
atp69
Rp70
sI23
g1
((lp71
I196
aI7
aI202
aI273
aI469
aI215
aI420
aI154
aI411
aI954
aI159
aI354
aI164
aI230
aI81
aI104
aI823
aI1082
aI1211
atp72
Rp73
sI24
g1
((lp74
I0
aI1
aI641
aI759
aI140
aI19
aI1049
aI89
aI223
aI800
aI34
aI41
aI45
aI942
aI884
aI745
aI120
atp75
Rp76
sI25
g1
((lp77
I132
aI5
aI70
aI78
aI1168
aI19
aI20
aI214
aI26
aI879
aI218
aI39
aI300
aI173
aI622
aI477
aI48
aI1050
aI115
aI52
aI117
aI698
aI1077
atp78
Rp79
sI26
g1
((lp80
I3
aI133
aI264
aI302
aI1231
aI291
aI270
aI25
aI573
aI127
atp81
Rp82
sI27
g1
((lp83
I960
aI3
aI4
aI439
aI73
aI951
aI206
aI16
aI401
aI276
aI270
aI983
aI409
aI602
aI265
aI286
aI863
aI33
aI99
aI804
aI101
aI508
aI110
aI50
aI691
aI311
aI505
aI1023
aI124
aI277
atp84
Rp85
sI28
g1
((lp86
I384
aI1
aI2
aI259
aI1217
aI10
aI130
aI77
aI1108
aI86
aI856
aI762
aI766
aI485
aI550
aI616
aI234
aI811
aI111
aI176
aI1000
aI754
aI819
aI117
aI122
aI1214
atp87
Rp88
sI29
g1
((lp89
I0
aI1216
aI2
aI748
aI329
aI202
aI139
aI1164
aI717
aI462
aI79
aI376
aI1046
aI32
aI228
aI1004
aI694
aI120
aI571
aI700
atp90
Rp91
sI30
g1
((lp92
I0
aI1089
aI10
aI268
aI1198
aI1039
aI56
aI21
aI819
aI475
aI545
aI612
aI39
aI360
aI42
aI427
aI238
aI112
aI113
aI307
aI952
aI104
aI126
aI213
atp93
Rp94
sI31
g1
((lp95
I1
aI5
aI833
aI776
aI9
aI1035
aI400
aI535
aI280
aI537
aI410
aI1109
aI164
aI167
aI169
aI299
aI45
aI306
aI54
aI59
aI444
aI449
aI961
aI1025
aI69
aI98
aI213
aI473
aI608
aI994
aI99
aI107
aI749
aI113
aI562
aI888
aI378
aI508
aI253
aI255
atp96
Rp97
sI32
g1
((lp98
I0
aI193
aI675
aI261
aI7
aI105
aI106
aI594
aI687
aI561
aI82
aI151
aI760
aI29
aI800
atp99
Rp100
sI33
g1
((lp101
I705
aI5
aI71
aI8
aI1227
aI269
aI81
aI786
aI675
aI405
aI88
aI89
aI667
aI97
aI34
aI803
aI292
aI549
aI491
aI27
aI91
aI979
aI1205
aI56
aI408
aI890
aI1208
aI188
aI383
atp102
Rp103
sI34
g1
((lp104
I4
aI135
aI136
aI910
aI210
aI275
aI151
aI24
aI94
aI33
aI995
aI167
aI43
aI558
aI368
aI177
aI147
aI569
aI63
atp105
Rp106
sI35
g1
((lp107
I2
aI4
aI78
aI19
aI46
aI216
aI1028
aI412
aI349
aI288
aI1132
aI237
aI174
aI815
aI176
aI211
aI316
aI511
atp108
Rp109
sI36
g1
((lp110
I0
aI321
aI3
aI165
aI518
aI136
aI172
aI428
aI17
aI1074
aI539
atp111
Rp112
sI37
g1
((lp113
I1154
aI611
aI422
aI11
aI12
aI125
aI21
aI726
aI1052
aI445
aI94
aI981
atp114
Rp115
sI38
g1
((lp116
I1057
aI537
aI7
aI8
aI521
aI55
aI275
aI937
aI153
aI795
atp117
Rp118
sI39
g1
((lp119
I161
aI130
aI451
aI13
aI144
aI243
aI116
aI53
aI25
aI60
aI30
atp120
Rp121
sI40
g1
((lp122
I1
aI226
aI1041
aI5
aI71
aI911
aI16
aI913
aI114
aI278
aI55
aI222
atp123
Rp124
sI41
g1
((lp125
I1
aI1218
aI611
aI230
aI198
aI1000
aI626
aI20
aI958
aI503
aI24
aI84
aI186
aI61
aI798
aI709
atp126
Rp127
sI42
g1
((lp128
I1216
aI1
aI66
aI4
aI197
aI134
aI257
aI584
aI1099
aI590
aI85
aI30
aI546
aI297
aI308
aI761
aI252
aI511
atp129
Rp130
sI43
g1
((lp131
I160
aI34
aI1004
aI12
aI239
aI560
aI19
aI183
aI472
aI825
atp132
Rp133
sI44
g1
((lp134
I961
aI3
aI100
aI133
aI12
aI653
aI431
aI16
aI690
aI435
aI293
aI574
aI95
atp135
Rp136
sI45
g1
((lp137
I1120
aI131
aI4
aI137
aI938
aI141
aI341
aI599
aI24
aI420
aI607
aI62
aI31
atp138
Rp139
sI46
g1
((lp140
I35
aI4
aI534
aI9
aI74
aI1070
aI271
aI92
aI67
aI147
aI118
aI343
aI88
aI60
aI1002
aI190
atp141
Rp142
sI47
g1
((lp143
I335
aI19
aI4
aI149
aI6
aI867
aI331
aI431
atp144
Rp145
sI48
g1
((lp146
I720
aI17
aI1179
aI52
aI5
aI25
aI826
aI283
atp147
Rp148
sI49
g1
((lp149
I0
aI3
aI1156
aI137
aI715
aI19
aI918
aI90
aI732
aI1117
aI734
aI481
aI548
aI939
aI1200
aI1201
aI1076
aI565
aI375
aI1210
aI61
atp150
Rp151
sI50
g1
((lp152
I219
aI4
aI7
aI521
aI906
aI27
atp153
Rp154
sI51
g1
((lp155
I1
aI3
aI993
aI76
aI108
aI336
aI1123
aI83
aI20
aI692
aI218
aI634
aI158
atp156
Rp157
sI52
g1
((lp158
I1
aI258
aI782
aI530
aI148
aI25
aI413
aI1055
aI163
aI170
aI48
aI1074
aI309
aI310
aI1079
aI65
aI68
aI69
aI329
aI330
aI332
aI718
aI1059
aI96
aI225
aI739
aI101
aI104
aI234
aI235
aI497
aI248
aI123
aI124
atp159
Rp160
sI53
g1
((lp161
I646
aI673
aI11
aI889
aI334
aI527
aI336
aI17
aI530
aI275
aI596
aI110
aI663
aI478
aI97
aI39
aI105
aI370
aI750
aI240
aI433
aI626
aI246
aI55
aI624
aI828
aI829
aI255
atp162
Rp163
sI54
g1
((lp164
I193
aI455
aI8
aI138
aI12
aI274
aI622
aI342
aI1178
aI1052
aI605
aI31
aI993
aI1125
aI807
aI552
aI362
aI935
aI300
aI750
aI1200
aI115
aI181
aI694
aI119
aI184
aI1145
aI1083
atp165
Rp166
sI55
g1
((lp167
I75
aI587
aI78
aI655
aI280
aI594
aI342
aI728
aI735
aI38
aI40
aI361
aI363
aI430
aI307
aI53
aI637
atp168
Rp169
sI56
g1
((lp170
I128
aI901
aI207
aI467
aI469
aI92
aI30
aI736
aI33
aI164
aI172
aI242
aI83
aI373
aI21
aI61
aI63
atp171
Rp172
sI57
g1
((lp173
I0
aI4
aI598
aI87
aI20
aI759
atp174
Rp175
sI58
g1
((lp176
I0
aI193
aI3
aI5
aI700
aI268
aI204
aI414
atp177
Rp178
sI59
g1
((lp179
I1
aI578
aI979
aI293
aI710
aI65
aI19
aI532
aI214
aI215
aI180
aI121
aI769
aI670
aI31
atp180
Rp181
sI60
g1
((lp182
I256
aI129
aI67
aI21
aI39
aI558
aI355
aI46
atp183
Rp184
sI61
g1
((lp185
I1137
aI679
aI41
aI170
aI49
aI213
aI56
aI665
aI602
aI508
atp186
Rp187
sI62
g1
((lp188
I0
aI103
aI904
aI156
aI522
aI45
aI1166
aI783
aI16
aI918
aI252
atp189
Rp190
sI63
g1
((lp191
I224
aI34
aI391
aI233
aI203
aI780
aI162
aI14
aI397
aI1072
aI1238
aI56
aI157
aI318
atp192
Rp193
sI64
g1
((lp194
I385
aI418
aI3
aI5
aI12
aI112
aI755
aI688
aI188
atp195
Rp196
sI65
g1
((lp197
I68
aI709
aI7
aI1102
aI1104
aI152
aI675
aI932
aI490
aI811
aI1138
aI178
aI52
aI761
aI59
aI1148
aI1149
atp198
Rp199
sI66
g1
((lp200
I3
aI5
aI42
aI403
aI977
aI755
aI1182
aI182
aI574
atp201
Rp202
sI67
g1
((lp203
I835
aI69
aI776
aI842
aI279
aI46
aI889
aI16
aI113
aI718
aI630
aI247
aI569
aI635
aI60
atp204
Rp205
sI68
g1
((lp206
I65
aI2
aI131
aI71
aI524
aI898
aI1103
aI1168
aI657
aI323
aI343
aI216
aI414
aI293
aI805
aI294
aI873
aI301
aI944
aI1107
aI52
aI503
aI507
aI1022
atp207
Rp208
sI69
g1
((lp209
I929
aI67
aI741
aI991
aI72
aI108
aI253
aI304
aI178
aI52
aI504
aI634
aI927
aI346
aI925
aI31
atp210
Rp211
sI70
g1
((lp212
I0
aI1
aI106
aI300
aI174
aI79
aI241
aI754
aI1066
aI280
aI25
aI154
aI922
atp213
Rp214
sI71
g1
((lp215
I68
aI390
aI908
aI912
aI273
aI339
aI86
aI93
aI33
aI1030
aI40
aI494
aI816
aI232
aI632
aI123
aI296
atp216
Rp217
sI72
g1
((lp218
I0
aI584
aI69
aI7
aI264
aI1080
aI1163
aI636
atp219
Rp220
sI73
g1
((lp221
I0
aI962
aI967
aI328
aI9
aI845
aI80
aI471
aI27
aI411
aI165
aI233
aI362
aI171
aI303
aI379
aI702
atp222
Rp223
sI74
g1
((lp224
I799
aI2
aI131
aI103
aI371
aI46
aI547
aI211
aI506
aI703
aI915
aI931
aI95
atp225
Rp226
sI75
g1
((lp227
I0
aI98
aI453
aI775
aI1196
aI909
aI822
aI55
aI89
aI22
aI189
atp228
Rp229
sI76
g1
((lp230
I784
aI1
aI434
aI51
aI107
aI12
atp231
Rp232
sI77
g1
((lp233
I519
aI456
aI10
aI716
aI142
aI145
aI19
aI85
aI406
aI28
aI157
aI606
aI927
aI112
aI913
aI476
aI234
aI615
aI1070
aI111
aI1008
aI1119
aI617
aI504
aI1083
aI764
atp234
Rp235
sI78
g1
((lp236
I352
aI35
aI390
aI137
aI458
aI204
aI333
aI1137
aI931
aI55
aI25
aI794
aI460
aI733
aI666
atp237
Rp238
sI79
g1
((lp239
I449
aI70
aI777
aI459
aI1234
aI403
aI917
aI797
aI479
aI1185
aI484
aI614
aI102
aI236
aI29
aI823
aI631
aI251
aI125
atp240
Rp241
sI80
g1
((lp242
I544
aI580
aI839
aI73
aI1196
aI13
aI541
aI222
aI1086
aI155
aI285
aI734
aI21
atp243
Rp244
sI81
g1
((lp245
I33
aI298
aI13
aI862
aI23
atp246
Rp247
sI82
g1
((lp248
I32
aI1041
aI2
aI996
aI121
aI905
aI11
atp249
Rp250
sI83
g1
((lp251
I672
aI3
aI967
aI232
aI332
aI846
aI143
aI600
aI51
aI469
aI1064
aI56
aI282
aI1050
aI254
aI735
atp252
Rp253
sI84
g1
((lp254
I0
aI3
aI1094
aI103
aI41
aI1102
aI239
aI94
aI729
aI1019
aI1085
aI382
atp255
Rp256
sI85
g1
((lp257
I672
aI1
aI199
aI42
aI903
aI780
aI77
aI144
aI182
aI791
aI536
aI604
atp258
Rp259
sI86
g1
((lp260
I404
aI261
aI71
aI20
aI28
aI1209
atp261
Rp262
sI87
g1
((lp263
I324
aI684
aI13
aI109
aI20
aI375
aI836
aI57
aI250
aI283
aI156
atp264
Rp265
sI88
g1
((lp266
I33
aI907
aI999
aI17
aI955
aI93
aI46
aI767
atp267
Rp268
sI89
g1
((lp269
I128
aI451
aI1092
aI518
aI33
aI75
aI792
aI149
aI24
aI91
aI1180
aI989
aI161
aI101
aI1131
aI236
aI445
aI383
atp270
Rp271
sI90
g1
((lp272
I0
aI256
aI3
aI517
aI398
aI464
aI1234
aI387
aI983
aI353
aI227
aI1060
aI109
aI49
aI180
aI183
aI892
atp273
Rp274
sI91
g1
((lp275
I33
aI547
aI807
aI201
aI746
aI141
aI14
aI146
aI787
aI89
aI317
atp276
Rp277
sI92
g1
((lp278
I8
aI56
aI896
aI861
aI46
atp279
Rp280
sI93
g1
((lp281
I752
aI71
aI88
aI10
aI1053
aI207
atp282
Rp283
sI94
g1
((lp284
I34
aI37
aI299
aI268
aI1009
aI84
aI341
aI246
aI121
aI122
aI734
atp285
Rp286
sI95
g1
((lp287
I0
aI994
aI326
aI232
aI905
aI74
aI107
aI44
aI296
aI179
aI564
aI298
aI351
atp288
Rp289
sI96
g1
((lp290
I1
aI130
aI339
aI526
aI783
aI19
aI755
aI787
aI857
aI890
aI162
aI616
aI243
aI52
aI889
aI314
aI123
aI319
atp291
Rp292
sI97
g1
((lp293
I33
aI163
aI5
aI1217
aI397
aI368
aI372
aI53
aI377
aI244
aI1021
aI117
atp294
Rp295
sI98
g1
((lp296
I0
aI659
aI182
aI75
aI899
aI637
aI31
atp297
Rp298
sI99
g1
((lp299
I194
aI27
aI13
aI31
atp300
Rp301
sI100
g1
((lp302
I0
aI544
aI163
aI992
aI44
aI429
atp303
Rp304
sI101
g1
((lp305
I770
aI421
aI1201
aI589
aI208
aI792
aI52
aI184
aI89
aI27
aI1157
atp306
Rp307
sI102
g1
((lp308
I880
aI1
aI79
aI10
aI443
aI621
aI157
atp309
Rp310
sI103
g1
((lp311
I482
aI84
aI74
aI620
aI205
aI62
atp312
Rp313
sI104
g1
((lp314
I418
aI1124
aI1161
aI298
aI237
aI989
aI546
aI52
aI30
aI23
aI548
aI249
aI604
aI970
aI158
atp315
Rp316
sI105
g1
((lp317
I32
aI2
aI53
aI254
aI437
atp318
Rp319
sI106
g1
((lp320
I32
aI450
aI132
aI70
aI422
aI7
aI747
aI945
aI407
aI1016
aI635
aI220
atp321
Rp322
sI107
g1
((lp323
I1175
aI31
aI76
aI205
aI494
aI95
atp324
Rp325
sI108
g1
((lp326
I929
aI739
aI4
aI69
aI615
aI520
aI745
aI421
aI687
aI240
aI51
aI444
aI735
atp327
Rp328
sI109
g1
((lp329
I404
aI110
aI87
aI676
aI90
aI428
aI14
atp330
Rp331
sI110
g1
((lp332
I963
aI109
aI302
aI877
aI624
aI1042
aI659
aI500
aI53
aI952
aI27
aI669
aI991
atp333
Rp334
sI111
g1
((lp335
I129
aI452
aI1
aI359
aI77
aI501
aI953
aI601
aI28
atp336
Rp337
sI112
g1
((lp338
I64
aI482
aI196
aI421
aI231
aI140
aI77
aI407
aI834
aI30
atp339
Rp340
sI113
g1
((lp341
I320
aI67
aI132
aI262
aI200
aI397
aI723
aI732
aI30
aI31
aI1219
aI229
aI292
aI838
aI681
aI303
aI114
aI630
aI1143
aI1017
atp342
Rp343
sI114
g1
((lp344
I16
aI113
aI378
aI437
aI40
atp345
Rp346
sI115
g1
((lp347
I25
aI1029
aI54
aI1031
atp348
Rp349
sI116
g1
((lp350
I153
aI39
aI4
aI972
aI1
atp351
Rp352
sI117
g1
((lp353
I580
aI97
aI500
aI25
aI276
aI28
atp354
Rp355
sI118
g1
((lp356
I608
aI369
aI914
aI19
aI46
aI10
aI206
aI725
atp357
Rp358
sI119
g1
((lp359
I16
aI256
aI3
aI54
aI695
aI329
aI906
aI624
atp360
Rp361
sI120
g1
((lp362
I1056
aI581
aI6
aI426
aI812
aI205
aI367
aI29
aI190
aI24
aI829
aI380
aI349
aI702
aI223
atp363
Rp364
sI121
g1
((lp365
I769
aI82
aI195
aI59
aI94
aI447
atp366
Rp367
sI122
g1
((lp368
I160
aI1
aI226
aI366
aI225
aI28
aI94
atp369
Rp370
sI123
g1
((lp371
I96
aI227
aI325
aI71
aI424
aI844
aI1036
aI461
aI52
aI662
aI1176
atp372
Rp373
sI124
g1
((lp374
I52
aI215
aI7
aI420
aI27
aI284
aI654
aI127
atp375
Rp376
sI125
g1
((lp377
I0
aI704
aI37
aI438
aI359
aI886
aI849
aI79
atp378
Rp379
sI126
g1
((lp380
I0
aI1
aI1026
aI579
aI197
aI486
aI1065
aI621
aI336
aI344
aI282
aI30
atp381
Rp382
sI127
g1
((lp383
I17
aI26
aI148
aI261
aI124
atp384
Rp385
sI128
g1
((lp386
I1
aI1027
aI196
aI648
aI585
aI143
aI276
aI1111
aI152
aI89
aI547
aI554
aI555
aI366
aI175
aI1201
aI183
aI56
aI212
aI1211
atp387
Rp388
sI129
g1
((lp389
I481
aI260
aI454
aI582
aI265
aI111
aI19
aI297
aI412
aI315
aI60
aI221
aI926
atp390
Rp391
sI130
g1
((lp392
I96
aI39
aI28
aI581
aI423
atp393
Rp394
sI131
g1
((lp395
I867
aI68
aI74
aI1115
aI45
aI751
atp396
Rp397
sI132
g1
((lp398
I113
aI387
aI198
aI25
aI106
aI575
atp399
Rp400
sI133
g1
((lp401
I800
aI321
aI3
aI837
aI353
aI843
aI44
aI688
aI427
aI180
aI1079
aI26
aI314
aI894
atp402
Rp403
sI134
g1
((lp404
I458
aI225
aI2
aI517
aI8
aI618
aI509
aI42
aI1182
atp405
Rp406
sI135
g1
((lp407
I1028
aI1157
aI7
aI1058
aI272
aI19
aI344
aI281
aI1118
aI479
aI400
aI34
aI1073
aI936
aI1065
aI519
aI175
aI368
aI305
aI181
aI440
aI415
atp408
Rp409
sI136
g1
((lp410
I34
aI36
aI6
aI360
aI233
aI1004
aI1132
aI457
aI795
aI189
atp411
Rp412
sI137
g1
((lp413
I49
aI210
aI389
aI568
aI168
aI45
aI78
aI431
atp414
Rp415
sI138
g1
((lp416
I514
aI310
aI4
aI406
aI7
aI1128
aI938
aI812
aI526
aI635
aI501
aI54
aI219
aI1194
atp417
Rp418
sI139
g1
((lp419
I433
aI260
aI21
aI363
aI29
aI334
aI1141
atp420
Rp421
sI140
g1
((lp422
I112
aI657
aI20
aI24
aI1135
aI415
aI1023
atp423
Rp424
sI141
g1
((lp425
I1010
aI6
aI808
aI91
aI45
aI1055
atp426
Rp427
sI142
g1
((lp428
I200
aI3
aI1222
aI8
aI77
aI301
atp429
Rp430
sI143
g1
((lp431
I128
aI512
aI199
aI522
aI11
aI269
aI462
aI399
aI658
aI83
aI220
aI1048
aI538
aI476
aI925
aI286
aI228
aI924
atp432
Rp433
sI144
g1
((lp434
I544
aI274
aI4
aI85
aI39
aI356
aI729
aI1108
atp435
Rp436
sI145
g1
((lp437
I1
aI2
aI260
aI650
aI1232
aI162
aI77
aI304
aI754
aI982
aI313
aI217
aI159
aI1086
aI639
atp438
Rp439
sI146
g1
((lp440
I1
aI417
aI202
aI878
aI17
aI786
aI91
aI1226
aI287
atp441
Rp442
sI147
g1
((lp443
I34
aI235
aI201
aI459
aI46
aI177
aI22
aI969
aI319
atp444
Rp445
sI148
g1
((lp446
I2
aI837
aI326
aI904
aI344
aI179
aI52
aI630
aI536
aI313
aI374
aI1183
aI730
aI127
atp447
Rp448
sI149
g1
((lp449
I89
aI47
aI4
aI1213
aI572
atp450
Rp451
sI150
g1
((lp452
I1
aI3
aI4
aI168
aI1065
aI458
aI1134
aI242
aI1171
aI580
aI315
aI668
atp453
Rp454
sI151
g1
((lp455
I32
aI34
aI741
aI902
aI497
aI680
aI396
aI610
aI529
aI19
aI724
aI158
aI216
aI478
atp456
Rp457
sI152
g1
((lp458
I128
aI65
aI435
aI4
aI1190
aI359
aI408
aI160
atp459
Rp460
sI153
g1
((lp461
I116
aI38
aI4
aI522
aI1103
aI527
atp462
Rp463
sI154
g1
((lp464
I482
aI203
aI357
aI70
aI1001
aI266
aI907
aI236
aI174
aI17
aI23
aI793
aI826
aI347
atp465
Rp466
sI155
g1
((lp467
I80
aI1
aI20
aI289
aI804
aI235
aI925
aI798
atp468
Rp469
sI156
g1
((lp470
I3
aI62
aI87
atp471
Rp472
sI157
g1
((lp473
I248
aI506
aI77
aI102
aI63
atp474
Rp475
sI158
g1
((lp476
I448
aI770
aI389
aI104
aI1100
aI1037
aI206
aI978
aI51
aI662
aI151
aI408
aI979
atp477
Rp478
sI159
g1
((lp479
I640
aI898
aI1027
aI388
aI903
aI11
aI460
aI145
aI978
aI339
aI278
aI23
aI409
aI283
aI609
aI868
aI230
aI294
aI951
aI452
atp480
Rp481
sI160
g1
((lp482
I731
aI932
aI457
aI43
aI1147
aI152
aI122
aI1115
aI346
aI286
atp483
Rp484
sI161
g1
((lp485
I3
aI772
aI869
aI39
aI273
aI661
aI439
aI89
aI572
atp486
Rp487
sI162
g1
((lp488
I96
aI145
aI1186
aI305
aI192
aI63
atp489
Rp490
sI163
g1
((lp491
I97
aI642
aI52
aI599
aI100
aI209
aI539
aI186
atp492
Rp493
sI164
g1
((lp494
I697
aI686
aI277
aI23
aI56
aI249
aI186
aI31
aI318
aI287
atp495
Rp496
sI165
g1
((lp497
I848
aI1058
aI36
aI1146
aI73
aI10
aI716
aI474
atp498
Rp499
sI166
g1
((lp500
I17
aI2
aI724
aI645
aI841
aI9
aI517
atp501
Rp502
sI167
g1
((lp503
I34
aI551
aI555
aI12
aI462
aI756
aI374
aI345
aI440
aI633
aI31
atp504
Rp505
sI168
g1
((lp506
I3
aI900
aI1093
aI870
aI169
aI177
aI370
aI723
aI181
aI150
aI137
aI472
aI222
aI383
atp507
Rp508
sI169
g1
((lp509
I0
aI832
aI392
aI31
aI170
aI496
aI168
aI245
aI1018
aI539
aI816
atp510
Rp511
sI170
g1
((lp512
I352
aI483
aI169
aI461
aI400
aI593
aI1202
aI52
aI725
aI564
aI61
atp513
Rp514
sI171
g1
((lp515
I210
aI483
aI4
aI6
aI73
aI461
aI255
atp516
Rp517
sI172
g1
((lp518
I56
aI36
aI332
aI6
aI768
atp519
Rp520
sI173
g1
((lp521
I320
aI480
aI3
aI11
aI25
aI187
aI590
atp522
Rp523
sI174
g1
((lp524
I592
aI801
aI194
aI35
aI70
aI154
aI350
aI191
atp525
Rp526
sI175
g1
((lp527
I128
aI417
aI5
aI438
aI135
aI489
aI887
atp528
Rp529
sI176
g1
((lp530
I1232
aI1
aI642
aI35
aI1002
aI28
atp531
Rp532
sI177
g1
((lp533
I34
aI310
aI327
aI168
aI423
aI396
aI322
aI367
aI1197
aI147
aI468
aI246
aI311
aI1224
aI381
aI1023
atp534
Rp535
sI178
g1
((lp536
I65
aI1122
aI613
aI209
aI10
aI715
aI69
atp537
Rp538
sI179
g1
((lp539
I649
aI18
aI148
aI854
aI95
atp540
Rp541
sI180
g1
((lp542
I257
aI90
aI59
aI133
aI439
atp543
Rp544
sI181
g1
((lp545
I168
aI54
aI135
atp546
Rp547
sI182
g1
((lp548
I98
aI515
aI901
aI840
aI66
aI973
aI85
aI284
aI1150
aI895
atp549
Rp550
sI183
g1
((lp551
I128
aI90
aI43
aI941
atp552
Rp553
sI184
g1
((lp554
I201
aI2
aI101
aI54
aI997
atp555
Rp556
sI185
g1
((lp557
I353
aI2
aI3
aI4
aI1232
aI499
aI212
aI1144
aI315
atp558
Rp559
sI186
g1
((lp560
I944
aI1169
aI163
aI164
aI823
aI41
aI267
atp561
Rp562
sI187
g1
((lp563
I16
aI20
aI556
aI671
aI652
aI173
aI415
atp564
Rp565
sI188
g1
((lp566
I64
aI33
aI629
aI6
aI839
aI218
aI752
atp567
Rp568
sI189
g1
((lp569
I208
aI337
aI595
aI243
aI136
aI323
aI75
aI14
atp570
Rp571
sI190
g1
((lp572
I577
aI4
aI263
aI266
aI813
aI46
aI855
aI120
aI254
atp573
Rp574
sI191
g1
((lp575
I272
aI697
aI4
aI174
aI6
atp576
Rp577
sI192
g1
((lp578
I162
aI583
aI8
aI585
aI12
aI525
aI312
aI568
aI345
aI1050
aI379
aI317
atp579
Rp580
sI193
g1
((lp581
I32
aI58
aI244
aI54
aI399
atp582
Rp583
sI194
g1
((lp584
I8
aI99
aI531
aI725
aI174
atp585
Rp586
sI195
g1
((lp587
I121
aI3
aI17
atp588
Rp589
sI196
g1
((lp590
I128
aI112
aI228
aI23
aI689
aI711
aI844
atp591
Rp592
sI197
g1
((lp593
I0
aI824
aI42
aI126
atp594
Rp595
sI198
g1
((lp596
I41
aI887
aI132
aI15
atp597
Rp598
sI199
g1
((lp599
I1024
aI1186
aI455
aI395
aI143
aI370
aI1139
aI20
aI85
aI371
aI1177
aI615
atp600
Rp601
sI200
g1
((lp602
I392
aI113
aI12
aI142
atp603
Rp604
sI201
g1
((lp605
I241
aI147
aI677
aI231
aI184
aI859
aI91
atp606
Rp607
sI202
g1
((lp608
I672
aI146
aI1156
aI23
aI1114
aI29
aI1054
aI1039
atp609
Rp610
sI203
g1
((lp611
I258
aI710
aI1080
aI9
aI154
aI219
aI554
aI63
atp612
Rp613
sI204
g1
((lp614
I416
aI577
aI322
aI1238
aI58
aI78
aI15
atp615
Rp616
sI205
g1
((lp617
I945
aI308
aI1013
aI103
aI120
aI107
atp618
Rp619
sI206
g1
((lp620
I1006
aI27
aI158
aI118
aI455
atp621
Rp622
sI207
g1
((lp623
I577
aI645
aI972
aI17
aI466
aI371
aI56
aI571
aI93
atp624
Rp625
sI208
g1
((lp626
I19
aI419
aI747
aI189
aI101
atp627
Rp628
sI209
g1
((lp629
I17
aI178
aI163
atp630
Rp631
sI210
g1
((lp632
I137
aI34
aI171
aI698
aI763
atp633
Rp634
sI211
g1
((lp635
I0
aI1008
aI35
aI1169
aI74
aI446
aI1215
atp636
Rp637
sI212
g1
((lp638
I128
aI789
aI263
aI185
aI1095
aI11
aI313
atp639
Rp640
sI213
g1
((lp641
I921
aI31
aI61
aI30
aI575
atp642
Rp643
sI214
g1
((lp644
I0
aI705
aI1179
aI229
aI358
aI975
aI710
aI241
aI566
aI25
aI59
aI1148
atp645
Rp646
sI215
g1
((lp647
I59
aI124
aI533
aI23
atp648
Rp649
sI216
g1
((lp650
I1111
aI35
aI68
aI325
aI151
aI698
aI535
aI1098
atp651
Rp652
sI217
g1
((lp653
I0
aI640
aI867
aI6
aI488
aI847
aI145
aI1077
aI764
atp654
Rp655
sI218
g1
((lp656
I529
aI51
aI870
aI598
aI25
aI443
aI188
atp657
Rp658
sI219
g1
((lp659
I50
aI612
aI393
aI138
aI203
aI1116
atp660
Rp661
sI220
g1
((lp662
I8
aI106
aI820
aI143
atp663
Rp664
sI221
g1
((lp665
I1
aI3
aI340
aI933
aI129
aI761
aI667
atp666
Rp667
sI222
g1
((lp668
I80
aI168
aI40
atp669
Rp670
sI223
g1
((lp671
I24
aI120
aI290
aI971
aI238
atp672
Rp673
sI224
g1
((lp674
I480
aI20
aI22
aI247
aI772
aI1100
aI253
aI63
atp675
Rp676
sI225
g1
((lp677
I122
aI355
aI52
aI386
aI134
atp678
Rp679
sI226
g1
((lp680
I4
aI1194
aI40
aI468
aI122
aI557
aI430
aI781
atp681
Rp682
sI227
g1
((lp683
I512
aI1057
aI648
aI619
aI1074
aI20
aI90
aI123
aI764
aI830
atp684
Rp685
sI228
g1
((lp686
I1089
aI196
aI327
aI744
aI1185
aI267
aI942
aI143
aI498
aI915
aI1012
aI758
aI29
atp687
Rp688
sI229
g1
((lp689
I113
aI434
aI291
aI214
aI9
aI811
aI498
atp690
Rp691
sI230
g1
((lp692
I688
aI23
aI41
aI282
aI477
aI159
atp693
Rp694
sI231
g1
((lp695
I112
aI3
aI1076
aI693
aI296
aI201
aI669
atp696
Rp697
sI232
g1
((lp698
I83
aI516
aI71
aI1192
aI756
aI410
aI809
aI95
atp699
Rp700
sI233
g1
((lp701
I661
aI422
aI136
aI73
aI731
aI63
atp702
Rp703
sI234
g1
((lp704
I52
aI28
aI77
aI454
aI825
atp705
Rp706
sI235
g1
((lp707
I147
aI52
aI294
aI489
aI155
aI316
aI939
atp708
Rp709
sI236
g1
((lp710
I89
aI154
aI879
aI79
atp711
Rp712
sI237
g1
((lp713
I1
aI35
aI487
aI104
aI519
aI239
aI272
aI722
aI899
aI660
aI545
aI1078
atp714
Rp715
sI238
g1
((lp716
I16
aI417
aI405
aI1206
aI647
aI30
aI1006
aI223
atp717
Rp718
sI239
g1
((lp719
I416
aI324
aI43
aI237
aI659
aI84
aI309
aI534
aI1020
aI1141
atp720
Rp721
sI240
g1
((lp722
I0
aI53
aI876
aI331
aI108
aI414
atp723
Rp724
sI241
g1
((lp725
I817
aI214
aI70
aI201
aI392
aI265
aI959
atp726
Rp727
sI242
g1
((lp728
I20
aI597
aI150
aI56
aI671
aI285
aI607
atp729
Rp730
sI243
g1
((lp731
I96
aI337
aI258
aI39
aI384
aI189
atp732
Rp733
sI244
g1
((lp734
I193
aI97
aI999
aI466
aI20
aI1078
aI1016
aI921
aI980
atp735
Rp736
sI245
g1
((lp737
I814
aI19
aI606
aI263
aI8
aI425
aI169
atp738
Rp739
sI246
g1
((lp740
I177
aI290
aI852
aI53
aI727
aI617
aI717
aI94
atp741
Rp742
sI247
g1
((lp743
I224
aI1
aI67
aI981
aI1030
aI992
aI1019
aI618
atp744
Rp745
sI248
g1
((lp746
I464
aI609
aI52
aI679
aI330
aI157
aI15
atp747
Rp748
sI249
g1
((lp749
I104
aI12
aI164
aI553
atp750
Rp751
sI250
g1
((lp752
I0
aI322
aI859
aI87
aI9
aI394
aI443
atp753
Rp754
sI251
g1
((lp755
I513
aI2
aI6
aI295
aI586
aI973
aI655
aI568
aI79
atp756
Rp757
sI252
g1
((lp758
I42
aI5
aI62
aI391
atp759
Rp760
sI253
g1
((lp761
I224
aI1010
aI31
aI69
aI727
atp762
Rp763
sI254
g1
((lp764
I257
aI514
aI83
aI948
aI277
aI105
aI190
aI319
atp765
Rp766
sI255
g1
((lp767
I1185
aI674
aI53
aI171
aI525
aI318
aI31
atp768
Rp769
sI256
g1
((lp770
I90
aI271
aI60
aI119
atp771
Rp772
sI257
g1
((lp773
I864
aI677
aI42
aI1229
aI465
aI883
aI180
aI542
aI893
aI254
atp774
Rp775
sI258
g1
((lp776
I274
aI203
aI52
aI243
atp777
Rp778
sI259
g1
((lp779
I0
aI28
aI524
aI1212
aI20
aI949
aI410
aI380
aI922
atp780
Rp781
sI260
g1
((lp782
I129
aI145
aI139
aI1140
aI463
atp783
Rp784
sI261
g1
((lp785
I32
aI720
aI86
aI649
aI412
aI269
aI127
atp786
Rp787
sI262
g1
((lp788
I872
aI113
aI3
aI12
atp789
Rp790
sI263
g1
((lp791
I978
aI212
aI245
aI190
atp792
Rp793
sI264
g1
((lp794
I72
aI1
aI26
atp795
Rp796
sI265
g1
((lp797
I129
aI491
aI715
aI241
aI27
aI303
atp798
Rp799
sI266
g1
((lp800
I1
aI154
aI379
aI190
aI471
atp801
Rp802
sI267
g1
((lp803
I17
aI186
aI228
atp804
Rp805
sI268
g1
((lp806
I58
aI94
aI30
aI1135
atp807
Rp808
sI269
g1
((lp809
I33
aI463
aI380
aI261
aI143
atp810
Rp811
sI270
g1
((lp812
I706
aI5
aI441
aI26
aI27
aI1102
atp813
Rp814
sI271
g1
((lp815
I256
aI385
aI4
aI966
aI689
aI444
aI46
atp816
Rp817
sI272
g1
((lp818
I576
aI135
aI237
aI1214
aI191
atp819
Rp820
sI273
g1
((lp821
I161
aI71
aI23
atp822
Rp823
sI274
g1
((lp824
I258
aI328
aI363
aI834
aI144
aI1064
aI510
aI54
aI382
atp825
Rp826
sI275
g1
((lp827
I34
aI53
aI38
aI442
aI559
aI351
atp828
Rp829
sI276
g1
((lp830
I128
aI707
aI388
aI423
aI365
aI117
aI27
aI924
aI285
atp831
Rp832
sI277
g1
((lp833
I288
aI604
aI27
aI164
aI254
atp834
Rp835
sI278
g1
((lp836
I360
aI40
aI1212
aI863
aI12
aI159
atp837
Rp838
sI279
g1
((lp839
I402
aI67
aI372
aI6
aI12
aI690
atp840
Rp841
sI280
g1
((lp842
I394
aI55
aI348
aI70
aI31
atp843
Rp844
sI281
g1
((lp845
I1
aI9
aI814
aI135
atp846
Rp847
sI282
g1
((lp848
I616
aI722
aI83
aI230
aI1047
aI696
aI126
atp849
Rp850
sI283
g1
((lp851
I48
aI856
aI340
aI87
aI424
aI628
aI159
atp852
Rp853
sI284
g1
((lp854
I1144
aI9
aI124
aI182
aI1127
atp855
Rp856
sI285
g1
((lp857
I80
aI242
aI276
aI1098
aI354
aI1167
aI306
aI717
atp858
Rp859
sI286
g1
((lp860
I160
aI897
aI27
aI143
atp861
Rp862
sI287
g1
((lp863
I1
aI146
aI164
aI874
aI1119
atp864
Rp865
sI288
g1
((lp866
I35
aI4
aI277
aI326
aI819
aI331
atp867
Rp868
sI289
g1
((lp869
I321
aI4
aI1150
aI466
aI563
aI1140
aI21
aI478
aI1081
aI155
aI996
aI1054
atp870
Rp871
sI290
g1
((lp872
I818
aI19
aI246
aI223
aI1231
aI351
atp873
Rp874
sI291
g1
((lp875
I229
aI806
aI26
aI511
aI12
aI381
aI1093
aI495
atp876
Rp877
sI292
g1
((lp878
I0
aI33
aI886
aI113
aI346
aI348
atp879
Rp880
sI293
g1
((lp881
I59
aI596
aI68
aI347
aI44
aI1007
atp882
Rp883
sI294
g1
((lp884
I1184
aI68
aI773
aI586
aI235
aI652
aI1176
aI505
aI159
atp885
Rp886
sI295
g1
((lp887
I0
aI11
aI713
aI875
aI496
aI402
aI468
aI789
aI1174
aI251
atp888
Rp889
sI296
g1
((lp890
I644
aI998
aI71
aI778
aI231
aI396
aI335
aI436
aI565
aI822
aI95
atp891
Rp892
sI297
g1
((lp893
I16
aI129
aI42
aI1033
atp894
Rp895
sI298
g1
((lp896
I354
aI104
aI746
aI684
aI653
aI846
aI592
aI81
aI936
aI628
aI95
aI317
aI426
atp897
Rp898
sI299
g1
((lp899
I859
aI773
aI21
aI31
aI94
aI495
atp900
Rp901
sI300
g1
((lp902
I642
aI1091
aI982
aI70
aI553
aI25
aI1205
aI54
aI631
aI1145
aI891
aI1022
aI479
atp903
Rp904
sI301
g1
((lp905
I832
aI507
aI68
aI680
aI1226
aI142
aI465
aI20
aI920
aI500
aI731
atp906
Rp907
sI302
g1
((lp908
I1139
aI1204
aI5
aI1006
aI26
aI939
aI110
aI821
atp909
Rp910
sI303
g1
((lp911
I113
aI643
aI73
aI265
aI938
aI908
atp912
Rp913
sI304
g1
((lp914
I0
aI145
aI972
aI69
aI1062
atp915
Rp916
sI305
g1
((lp917
I0
aI361
aI162
aI1097
aI135
atp918
Rp919
sI306
g1
((lp920
I1
aI307
aI997
aI561
aI285
aI574
aI31
atp921
Rp922
sI307
g1
((lp923
I306
aI309
aI30
aI55
atp924
Rp925
sI308
g1
((lp926
I0
aI512
aI42
aI205
aI1193
atp927
Rp928
sI309
g1
((lp929
I449
aI307
aI52
aI753
aI1153
aI1140
aI686
aI239
atp930
Rp931
sI310
g1
((lp932
I1032
aI177
aI138
aI52
aI357
atp933
Rp934
sI311
g1
((lp935
I177
aI965
aI473
aI9
aI27
aI573
atp936
Rp937
sI312
g1
((lp938
I192
aI2
aI3
aI328
aI1225
aI878
aI451
aI665
aI1011
atp939
Rp940
sI313
g1
((lp941
I145
aI148
aI212
aI1189
aI1145
aI699
aI670
atp942
Rp943
sI314
g1
((lp944
I96
aI528
aI133
aI702
aI7
atp945
Rp946
sI315
g1
((lp947
I129
aI185
aI521
aI150
aI369
atp948
Rp949
sI316
g1
((lp950
I0
aI594
aI35
aI606
aI958
aI235
aI459
atp951
Rp952
sI317
g1
((lp953
I192
aI645
aI405
aI298
aI91
aI510
aI485
atp954
Rp955
sI318
g1
((lp956
I496
aI668
aI63
aI164
aI255
atp957
Rp958
sI319
g1
((lp959
I96
aI147
aI254
atp960
Rp961
sI320
g1
((lp962
I636
aI11
aI685
aI173
aI113
aI914
aI566
aI335
aI540
aI413
atp963
Rp964
sI321
g1
((lp965
I289
aI810
aI36
aI133
aI1005
atp966
Rp967
sI322
g1
((lp968
I177
aI516
aI743
aI250
aI827
aI204
atp969
Rp970
sI323
g1
((lp971
I1156
aI324
aI797
aI68
aI10
aI683
aI189
aI943
atp972
Rp973
sI324
g1
((lp974
I760
aI323
aI564
aI646
aI87
aI744
aI489
aI239
atp975
Rp976
sI325
g1
((lp977
I216
aI1
aI123
aI433
atp978
Rp979
sI326
g1
((lp980
I288
aI356
aI934
aI946
aI786
aI148
aI1151
aI510
aI95
atp981
Rp982
sI327
g1
((lp983
I177
aI228
aI5
aI471
aI808
aI490
aI523
aI629
atp984
Rp985
sI328
g1
((lp986
I312
aI73
aI274
aI679
atp987
Rp988
sI329
g1
((lp989
I588
aI338
aI52
aI29
aI119
atp990
Rp991
sI330
g1
((lp992
I248
aI52
aI20
aI1133
atp993
Rp994
sI331
g1
((lp995
I288
aI386
aI355
aI772
aI806
aI492
aI930
aI47
aI240
aI977
aI473
aI924
aI1053
aI1087
atp996
Rp997
sI332
g1
((lp998
I172
aI83
aI52
aI1207
atp999
Rp1000
sI333
g1
((lp1001
I865
aI7
aI4
aI78
aI639
atp1002
Rp1003
sI334
g1
((lp1004
I1
aI765
aI612
aI361
aI874
aI139
aI1103
aI881
aI53
aI343
aI1208
aI442
aI381
atp1005
Rp1006
sI335
g1
((lp1007
I296
aI320
aI47
aI1029
aI399
atp1008
Rp1009
sI336
g1
((lp1010
I560
aI51
aI372
aI53
aI454
aI667
aI126
aI965
atp1011
Rp1012
sI337
g1
((lp1013
I2
aI243
aI189
atp1014
Rp1015
sI338
g1
((lp1016
I8
aI329
aI11
aI987
atp1017
Rp1018
sI339
g1
((lp1019
I96
aI389
aI71
aI393
aI658
aI373
aI760
aI891
aI1180
aI159
atp1020
Rp1021
sI340
g1
((lp1022
I416
aI1075
aI3
aI984
aI283
aI221
atp1023
Rp1024
sI341
g1
((lp1025
I10
aI45
aI94
atp1026
Rp1027
sI342
g1
((lp1028
I951
aI5
aI54
aI55
atp1029
Rp1030
sI343
g1
((lp1031
I1189
aI68
aI350
aI919
aI334
aI876
aI46
aI1071
atp1032
Rp1033
sI344
g1
((lp1034
I148
aI1157
aI534
aI135
aI666
aI126
atp1035
Rp1036
sI345
g1
((lp1037
I192
aI744
aI3
aI723
aI167
atp1038
Rp1039
sI346
g1
((lp1040
I160
aI292
aI69
aI998
aI583
aI712
aI559
aI627
aI628
aI1022
aI446
atp1041
Rp1042
sI347
g1
((lp1043
I1237
aI20
aI293
aI470
aI154
aI623
atp1044
Rp1045
sI348
g1
((lp1046
I280
aI17
aI292
aI532
atp1047
Rp1048
sI349
g1
((lp1049
I35
aI5
aI790
aI120
aI570
aI1003
aI1164
atp1050
Rp1051
sI350
g1
((lp1052
I1047
aI740
aI21
aI174
aI343
atp1053
Rp1054
sI351
g1
((lp1055
I801
aI290
aI275
aI488
aI506
aI1106
aI95
atp1056
Rp1057
sI352
g1
((lp1058
I384
aI170
aI4
aI650
aI78
atp1059
Rp1060
sI353
g1
((lp1061
I185
aI90
aI133
aI430
atp1062
Rp1063
sI354
g1
((lp1064
I298
aI796
aI285
aI23
atp1065
Rp1066
sI355
g1
((lp1067
I225
aI1122
aI579
aI331
aI515
aI533
aI854
aI664
aI60
aI885
atp1068
Rp1069
sI356
g1
((lp1070
I144
aI432
aI326
atp1071
Rp1072
sI357
g1
((lp1073
I1202
aI388
aI310
aI6
aI793
aI154
aI475
atp1074
Rp1075
sI358
g1
((lp1076
I0
aI19
aI214
aI583
atp1077
Rp1078
sI359
g1
((lp1079
I152
aI125
aI111
atp1080
Rp1081
sI360
g1
((lp1082
I770
aI958
aI278
aI136
aI716
aI30
atp1083
Rp1084
sI361
g1
((lp1085
I424
aI305
aI1213
aI334
aI55
atp1086
Rp1087
sI362
g1
((lp1088
I0
aI1025
aI387
aI54
aI73
aI767
atp1089
Rp1090
sI363
g1
((lp1091
I603
aI456
aI139
aI1010
aI686
aI274
aI852
aI55
aI827
atp1092
Rp1093
sI364
g1
((lp1094
I393
aI19
aI14
atp1095
Rp1096
sI365
g1
((lp1097
I276
aI21
aI7
aI824
aI588
aI437
atp1098
Rp1099
sI366
g1
((lp1100
I128
aI1
aI122
aI467
atp1101
Rp1102
sI367
g1
((lp1103
I576
aI177
aI3
aI1073
aI120
aI766
aI1151
atp1104
Rp1105
sI368
g1
((lp1106
I97
aI34
aI1115
aI373
aI593
aI135
aI846
atp1107
Rp1108
sI369
g1
((lp1109
I1040
aI1
aI118
aI585
aI315
aI1183
atp1110
Rp1111
sI370
g1
((lp1112
I578
aI53
aI199
aI168
aI1063
aI814
aI527
atp1113
Rp1114
sI371
g1
((lp1115
I74
aI207
aI1219
aI199
atp1116
Rp1117
sI372
g1
((lp1118
I336
aI97
aI279
aI535
aI571
aI768
atp1119
Rp1120
sI373
g1
((lp1121
I368
aI56
aI339
atp1122
Rp1123
sI374
g1
((lp1124
I148
aI453
aI167
aI1130
aI893
aI5
atp1125
Rp1126
sI375
g1
((lp1127
I928
aI1
aI1223
aI394
aI398
aI49
aI947
aI406
aI87
aI1210
aI861
aI1011
atp1128
Rp1129
sI376
g1
((lp1130
I736
aI20
aI532
aI29
aI6
atp1131
Rp1132
sI377
g1
((lp1133
I1
aI4
aI813
aI942
aI97
atp1134
Rp1135
sI378
g1
((lp1136
I863
aI996
aI9
aI556
aI882
aI526
aI114
aI703
aI31
atp1137
Rp1138
sI379
g1
((lp1139
I192
aI73
aI266
aI1128
aI719
atp1140
Rp1141
sI380
g1
((lp1142
I120
aI259
aI395
aI269
atp1143
Rp1144
sI381
g1
((lp1145
I640
aI177
aI291
aI766
aI334
atp1146
Rp1147
sI382
g1
((lp1148
I274
aI84
aI873
aI436
aI538
aI20
atp1149
Rp1150
sI383
g1
((lp1151
I168
aI33
aI591
aI89
atp1152
Rp1153
sI384
g1
((lp1154
I352
aI243
aI581
aI567
aI28
aI915
aI957
atp1155
Rp1156
sI385
g1
((lp1157
I64
aI641
aI738
aI3
aI896
aI1005
aI271
atp1158
Rp1159
sI386
g1
((lp1160
I225
aI331
aI12
atp1161
Rp1162
sI387
g1
((lp1163
I362
aI708
aI1095
aI132
aI986
aI90
atp1164
Rp1165
sI388
g1
((lp1166
I1192
aI276
aI357
aI159
atp1167
Rp1168
sI389
g1
((lp1169
I792
aI137
aI339
aI693
aI158
atp1170
Rp1171
sI390
g1
((lp1172
I17
aI588
aI429
aI78
aI71
atp1173
Rp1174
sI391
g1
((lp1175
I0
aI1200
aI470
aI763
aI252
aI63
atp1176
Rp1177
sI392
g1
((lp1178
I200
aI241
aI1225
aI169
atp1179
Rp1180
sI393
g1
((lp1181
I514
aI339
aI364
aI219
atp1182
Rp1183
sI394
g1
((lp1184
I1026
aI931
aI623
aI656
aI280
aI531
aI1177
aI375
aI856
aI569
aI250
aI975
aI1052
atp1185
Rp1186
sI395
g1
((lp1187
I1
aI875
aI380
aI199
atp1188
Rp1189
sI396
g1
((lp1190
I296
aI177
aI151
aI1207
aI1129
atp1191
Rp1192
sI397
g1
((lp1193
I97
aI63
aI113
atp1194
Rp1195
sI398
g1
((lp1196
I713
aI90
aI7
aI602
aI375
atp1197
Rp1198
sI399
g1
((lp1199
I193
aI335
aI419
aI1068
aI143
atp1200
Rp1201
sI400
g1
((lp1202
I891
aI170
aI31
aI135
atp1203
Rp1204
sI401
g1
((lp1205
I27
aI11
aI3
aI711
aI641
atp1206
Rp1207
sI402
g1
((lp1208
I847
aI18
aI295
aI279
atp1209
Rp1210
sI403
g1
((lp1211
I0
aI664
aI66
aI964
aI648
aI79
atp1212
Rp1213
sI404
g1
((lp1214
I419
aI7
aI1129
aI490
aI109
aI1165
aI787
aI916
aI86
aI1236
aI858
aI669
atp1215
Rp1216
sI405
g1
((lp1217
I33
aI1012
aI887
aI1217
aI781
aI238
aI317
atp1218
Rp1219
sI406
g1
((lp1220
I138
aI77
aI375
atp1221
Rp1222
sI407
g1
((lp1223
I112
aI106
aI20
atp1224
Rp1225
sI408
g1
((lp1226
I152
aI33
aI757
aI158
aI673
atp1227
Rp1228
sI409
g1
((lp1229
I0
aI676
aI559
aI849
aI851
aI954
aI27
aI413
aI159
atp1230
Rp1231
sI410
g1
((lp1232
I1160
aI259
aI1175
aI232
aI31
aI703
atp1233
Rp1234
sI411
g1
((lp1235
I9
aI505
aI73
aI23
atp1236
Rp1237
sI412
g1
((lp1238
I129
aI35
aI590
aI261
aI550
atp1239
Rp1240
sI413
g1
((lp1241
I320
aI673
aI52
aI1220
aI409
aI620
aI1166
atp1242
Rp1243
sI414
g1
((lp1244
I240
aI68
aI805
aI58
aI1163
aI813
aI558
atp1245
Rp1246
sI415
g1
((lp1247
I187
aI140
aI822
aI135
atp1248
Rp1249
sI416
g1
((lp1250
I340
aI204
aI239
atp1251
Rp1252
sI417
g1
((lp1253
I146
aI238
aI175
atp1254
Rp1255
sI418
g1
((lp1256
I64
aI104
aI7
aI739
aI487
atp1257
Rp1258
sI419
g1
((lp1259
I208
aI961
aI562
aI404
aI1089
aI1056
aI690
aI399
atp1260
Rp1261
sI420
g1
((lp1262
I124
aI1060
aI652
aI45
aI23
atp1263
Rp1264
sI421
g1
((lp1265
I112
aI625
aI108
aI101
aI1017
atp1266
Rp1267
sI422
g1
((lp1268
I592
aI37
aI502
aI1031
aI233
aI106
aI926
aI1199
atp1269
Rp1270
sI423
g1
((lp1271
I177
aI130
aI1075
aI276
aI556
aI1007
atp1272
Rp1273
sI424
g1
((lp1274
I123
aI531
aI596
aI1237
aI361
aI474
aI283
aI748
atp1275
Rp1276
sI425
g1
((lp1277
I721
aI2
aI21
aI1094
aI492
aI1036
aI245
atp1278
Rp1279
sI426
g1
((lp1280
I120
aI298
aI3
aI682
atp1281
Rp1282
sI427
g1
((lp1283
I882
aI1095
aI133
aI446
aI1002
aI11
aI476
aI30
atp1284
Rp1285
sI428
g1
((lp1286
I36
aI109
aI15
atp1287
Rp1288
sI429
g1
((lp1289
I1173
aI4
aI453
aI390
aI789
aI1110
aI472
aI100
aI671
atp1290
Rp1291
sI430
g1
((lp1292
I353
aI226
aI730
aI55
atp1293
Rp1294
sI431
g1
((lp1295
I448
aI901
aI646
aI137
aI543
aI44
aI589
aI47
atp1296
Rp1297
sI432
g1
((lp1298
I0
aI1
aI356
aI791
aI985
aI849
atp1299
Rp1300
sI433
g1
((lp1301
I53
aI1069
aI757
aI457
aI649
aI139
aI957
aI325
atp1302
Rp1303
sI434
g1
((lp1304
I441
aI3
aI76
aI229
aI869
atp1305
Rp1306
sI435
g1
((lp1307
I152
aI44
aI674
aI492
aI7
atp1308
Rp1309
sI436
g1
((lp1310
I296
aI17
aI538
aI382
aI864
atp1311
Rp1312
sI437
g1
((lp1313
I114
aI516
aI633
aI105
aI980
aI365
atp1314
Rp1315
sI438
g1
((lp1316
I175
aI637
aI125
aI7
atp1317
Rp1318
sI439
g1
((lp1319
I161
aI27
aI180
atp1320
Rp1321
sI440
g1
((lp1322
I1205
aI3
aI167
aI135
atp1323
Rp1324
sI441
g1
((lp1325
I434
aI3
aI892
aI555
aI460
aI270
atp1326
Rp1327
sI442
g1
((lp1328
I1
aI850
aI275
aI334
atp1329
Rp1330
sI443
g1
((lp1331
I218
aI250
aI102
aI487
atp1332
Rp1333
sI444
g1
((lp1334
I548
aI271
aI108
aI31
atp1335
Rp1336
sI445
g1
((lp1337
I488
aI89
aI37
aI1222
aI17
atp1338
Rp1339
sI446
g1
((lp1340
I211
aI1193
aI346
aI427
aI525
aI622
aI941
atp1341
Rp1342
sI447
g1
((lp1343
I121
aI12
aI5
atp1344
Rp1345
sI448
g1
((lp1346
I13
aI158
aI431
atp1347
Rp1348
sI449
g1
((lp1349
I31
aI309
aI79
atp1350
Rp1351
sI450
g1
((lp1352
I6
aI486
aI470
aI106
aI13
aI1166
aI948
aI502
aI1172
aI607
atp1353
Rp1354
sI451
g1
((lp1355
I312
aI89
aI39
atp1356
Rp1357
sI452
g1
((lp1358
I111
aI12
aI159
aI1014
aI631
atp1359
Rp1360
sI453
g1
((lp1361
I1195
aI75
aI429
aI374
atp1362
Rp1363
sI454
g1
((lp1364
I336
aI129
aI234
aI738
atp1365
Rp1366
sI455
g1
((lp1367
I54
aI206
aI199
atp1368
Rp1369
sI456
g1
((lp1370
I363
aI77
atp1371
Rp1372
sI457
g1
((lp1373
I160
aI433
aI567
aI136
aI1152
aI1036
atp1374
Rp1375
sI458
g1
((lp1376
I1155
aI613
aI150
aI552
aI746
aI78
aI134
atp1377
Rp1378
sI459
g1
((lp1379
I147
aI965
aI841
aI570
aI1215
aI316
aI79
atp1380
Rp1381
sI460
g1
((lp1382
I551
aI647
aI973
aI78
aI493
aI528
aI441
aI1085
aI159
atp1383
Rp1384
sI461
g1
((lp1385
I833
aI1163
aI774
aI170
aI171
aI685
aI598
aI1015
aI858
aI123
atp1386
Rp1387
sI462
g1
((lp1388
I480
aI1105
aI167
aI1096
aI29
aI477
aI143
atp1389
Rp1390
sI463
g1
((lp1391
I986
aI499
aI260
aI5
aI269
atp1392
Rp1393
sI464
g1
((lp1394
I1090
aI3
aI743
aI248
aI90
aI491
atp1395
Rp1396
sI465
g1
((lp1397
I257
aI20
aI301
atp1398
Rp1399
sI466
g1
((lp1400
I289
aI722
aI244
aI485
aI207
atp1401
Rp1402
sI467
g1
((lp1403
I968
aI483
aI644
aI877
aI56
aI13
aI366
aI959
atp1404
Rp1405
sI468
g1
((lp1406
I177
aI226
aI987
aI295
atp1407
Rp1408
sI469
g1
((lp1409
I56
aI1233
aI83
aI23
atp1410
Rp1411
sI470
g1
((lp1412
I920
aI450
aI347
aI391
aI499
atp1413
Rp1414
sI471
g1
((lp1415
I73
aI266
aI327
atp1416
Rp1417
sI472
g1
((lp1418
I168
aI43
aI429
aI774
atp1419
Rp1420
sI473
g1
((lp1421
I311
aI562
aI331
aI900
aI31
atp1422
Rp1423
sI474
g1
((lp1424
I513
aI3
aI165
aI424
aI781
aI504
aI850
aI600
aI1114
atp1425
Rp1426
sI475
g1
((lp1427
I1044
aI357
aI793
aI712
aI841
aI30
aI5
atp1428
Rp1429
sI476
g1
((lp1430
I706
aI963
aI967
aI427
aI1003
aI77
aI143
atp1431
Rp1432
sI477
g1
((lp1433
I230
aI582
aI1048
aI25
aI780
aI462
atp1434
Rp1435
sI478
g1
((lp1436
I289
aI53
aI601
aI151
atp1437
Rp1438
sI479
g1
((lp1439
I79
aI300
aI1237
aI135
atp1440
Rp1441
sI480
g1
((lp1442
I224
aI708
aI486
aI173
aI462
aI593
aI533
aI664
aI633
aI575
aI1084
aI1013
atp1443
Rp1444
sI481
g1
((lp1445
I129
aI619
aI910
aI6
aI49
atp1446
Rp1447
sI482
g1
((lp1448
I112
aI625
aI578
aI103
aI154
aI1202
atp1449
Rp1450
sI483
g1
((lp1451
I171
aI775
aI170
aI683
aI620
aI467
atp1452
Rp1453
sI484
g1
((lp1454
I0
aI1051
aI5
aI678
aI79
atp1455
Rp1456
sI485
g1
((lp1457
I466
aI28
aI317
atp1458
Rp1459
sI486
g1
((lp1460
I480
aI450
aI692
aI1106
aI126
aI831
atp1461
Rp1462
sI487
g1
((lp1463
I1021
aI418
aI443
aI237
aI797
atp1464
Rp1465
sI488
g1
((lp1466
I217
aI561
aI445
aI351
atp1467
Rp1468
sI489
g1
((lp1469
I728
aI235
aI324
aI175
aI623
atp1470
Rp1471
sI490
g1
((lp1472
I65
aI523
aI404
aI327
atp1473
Rp1474
sI491
g1
((lp1475
I704
aI33
aI707
aI709
aI705
aI265
aI683
aI464
aI563
aI695
aI1063
atp1476
Rp1477
sI492
g1
((lp1478
I425
aI331
aI435
atp1479
Rp1480
sI493
g1
((lp1481
I833
aI10
aI3
aI460
aI597
atp1482
Rp1483
sI494
g1
((lp1484
I107
aI1084
aI3
aI684
aI71
atp1485
Rp1486
sI495
g1
((lp1487
I0
aI291
aI299
aI543
aI507
atp1488
Rp1489
sI496
g1
((lp1490
I169
aI677
aI318
aI295
atp1491
Rp1492
sI497
g1
((lp1493
I1067
aI7
aI52
aI151
atp1494
Rp1495
sI498
g1
((lp1496
I16
aI228
aI229
aI1142
aI537
aI778
aI955
aI653
atp1497
Rp1498
sI499
g1
((lp1499
I185
aI463
aI838
aI470
aI807
atp1500
Rp1501
sI500
g1
((lp1502
I117
aI110
aI301
atp1503
Rp1504
sI501
g1
((lp1505
I576
aI1075
aI138
aI587
aI10
aI111
atp1506
Rp1507
sI502
g1
((lp1508
I1152
aI1
aI450
aI422
atp1509
Rp1510
sI503
g1
((lp1511
I1137
aI994
aI19
aI68
aI41
aI1053
atp1512
Rp1513
sI504
g1
((lp1514
I474
aI1236
aI1146
aI69
aI77
atp1515
Rp1516
sI505
g1
((lp1517
I785
aI1218
aI27
aI294
aI1079
aI411
aI845
atp1518
Rp1519
sI506
g1
((lp1520
I545
aI550
aI74
aI351
aI157
aI541
atp1521
Rp1522
sI507
g1
((lp1523
I865
aI1042
aI68
aI301
aI495
atp1524
Rp1525
sI508
g1
((lp1526
I27
aI61
aI31
atp1527
Rp1528
sI509
g1
((lp1529
I1
aI3
aI134
atp1530
Rp1531
sI510
g1
((lp1532
I274
aI317
aI326
atp1533
Rp1534
sI511
g1
((lp1535
I35
aI42
aI291
aI1107
aI654
atp1536
Rp1537
sI512
g1
((lp1538
I855
aI227
aI308
aI518
aI143
atp1539
Rp1540
sI513
g1
((lp1541
I1
aI474
aI251
atp1542
Rp1543
sI514
g1
((lp1544
I1222
aI393
aI138
aI1117
aI254
atp1545
Rp1546
sI515
g1
((lp1547
I355
aI20
aI182
atp1548
Rp1549
sI516
g1
((lp1550
I232
aI625
aI322
aI818
aI437
atp1551
Rp1552
sI517
g1
((lp1553
I868
aI134
aI166
aI90
aI1212
aI1198
atp1554
Rp1555
sI518
g1
((lp1556
I512
aI89
aI36
aI1008
aI567
atp1557
Rp1558
sI519
g1
((lp1559
I741
aI647
aI237
aI77
aI135
atp1560
Rp1561
sI520
g1
((lp1562
I108
aI1066
aI20
aI4
atp1563
Rp1564
sI521
g1
((lp1565
I50
aI315
aI38
atp1566
Rp1567
sI522
g1
((lp1568
I913
aI1206
aI599
aI153
aI62
aI143
atp1569
Rp1570
sI523
g1
((lp1571
I3
aI1044
aI662
aI327
aI1113
aI490
aI935
atp1572
Rp1573
sI524
g1
((lp1574
I2
aI259
aI68
aI894
aI838
atp1575
Rp1576
sI525
g1
((lp1577
I192
aI771
aI1204
aI549
aI1191
aI446
aI255
atp1578
Rp1579
sI526
g1
((lp1580
I96
aI1180
aI378
aI836
aI138
atp1581
Rp1582
sI527
g1
((lp1583
I153
aI370
aI53
aI663
atp1584
Rp1585
sI528
g1
((lp1586
I314
aI460
aI634
aI6
atp1587
Rp1588
sI529
g1
((lp1589
I617
aI6
aI151
aI1081
aI218
aI956
aI1146
atp1590
Rp1591
sI530
g1
((lp1592
I3
aI52
aI53
atp1593
Rp1594
sI531
g1
((lp1595
I424
aI1072
aI394
aI194
aI935
atp1596
Rp1597
sI532
g1
((lp1598
I376
aI348
aI1034
aI59
aI668
atp1599
Rp1600
sI533
g1
((lp1601
I480
aI1032
aI355
aI1235
aI215
atp1602
Rp1603
sI534
g1
((lp1604
I1138
aI878
aI344
aI762
aI46
aI239
atp1605
Rp1606
sI535
g1
((lp1607
I216
aI372
aI31
atp1608
Rp1609
sI536
g1
((lp1610
I776
aI912
aI10
aI148
aI85
atp1611
Rp1612
sI537
g1
((lp1613
I498
aI38
aI31
atp1614
Rp1615
sI538
g1
((lp1616
I436
aI1030
aI382
aI143
atp1617
Rp1618
sI539
g1
((lp1619
I169
aI163
aI36
atp1620
Rp1621
sI540
g1
((lp1622
I320
aI762
aI10
aI21
aI573
atp1623
Rp1624
sI541
g1
((lp1625
I80
aI837
aI759
aI506
aI13
aI654
aI1197
atp1626
Rp1627
sI542
g1
((lp1628
I1
aI650
aI4
aI257
atp1629
Rp1630
sI543
g1
((lp1631
I17
aI431
aI740
aI1158
aI495
atp1632
Rp1633
sI544
g1
((lp1634
I80
aI144
aI100
atp1635
Rp1636
sI545
g1
((lp1637
I974
aI918
aI990
aI506
aI237
aI30
atp1638
Rp1639
sI546
g1
((lp1640
I104
aI0
aI42
aI756
aI742
atp1641
Rp1642
sI547
g1
((lp1643
I128
aI74
aI91
aI908
atp1644
Rp1645
sI548
g1
((lp1646
I104
aI49
aI444
aI879
atp1647
Rp1648
sI549
g1
((lp1649
I976
aI33
aI2
aI835
aI1094
aI1016
aI525
atp1650
Rp1651
sI550
g1
((lp1652
I28
aI506
aI699
aI412
atp1653
Rp1654
sI551
g1
((lp1655
I0
aI603
aI460
aI167
atp1656
Rp1657
sI552
g1
((lp1658
I17
aI458
aI988
aI970
aI54
atp1659
Rp1660
sI553
g1
((lp1661
I816
aI249
aI19
aI300
aI862
atp1662
Rp1663
sI554
g1
((lp1664
I0
aI128
aI928
aI638
aI608
aI203
aI1101
aI963
atp1665
Rp1666
sI555
g1
((lp1667
I128
aI441
aI947
aI1109
aI167
atp1668
Rp1669
sI556
g1
((lp1670
I378
aI187
aI989
aI423
atp1671
Rp1672
sI557
g1
((lp1673
I1
aI226
aI5
aI657
aI999
aI860
atp1674
Rp1675
sI558
g1
((lp1676
I1184
aI34
aI60
aI414
aI782
atp1677
Rp1678
sI559
g1
((lp1679
I409
aI346
aI275
aI589
aI1235
atp1680
Rp1681
sI560
g1
((lp1682
I336
aI17
aI43
atp1683
Rp1684
sI561
g1
((lp1685
I488
aI32
aI306
aI1043
atp1686
Rp1687
sI562
g1
((lp1688
I473
aI419
aI651
aI31
atp1689
Rp1690
sI563
g1
((lp1691
I289
aI871
aI714
aI491
aI1164
aI881
aI595
aI19
aI1191
atp1692
Rp1693
sI564
g1
((lp1694
I170
aI324
aI95
atp1695
Rp1696
sI565
g1
((lp1697
I49
aI611
aI4
aI691
aI945
aI296
atp1698
Rp1699
sI566
g1
((lp1700
I320
aI2
aI691
aI214
aI681
aI638
atp1701
Rp1702
sI567
g1
((lp1703
I384
aI897
aI1141
aI518
aI809
aI457
atp1704
Rp1705
sI568
g1
((lp1706
I192
aI137
aI251
aI597
atp1707
Rp1708
sI569
g1
((lp1709
I394
aI67
aI34
atp1710
Rp1711
sI570
g1
((lp1712
I3
aI660
aI349
aI459
atp1713
Rp1714
sI571
g1
((lp1715
I1081
aI372
aI29
aI207
atp1716
Rp1717
sI572
g1
((lp1718
I161
aI644
aI4
aI149
atp1719
Rp1720
sI573
g1
((lp1721
I26
aI591
aI540
aI311
atp1722
Rp1723
sI574
g1
((lp1724
I306
aI44
aI66
atp1725
Rp1726
sI575
g1
((lp1727
I480
aI132
aI213
atp1728
Rp1729
sI576
g1
((lp1730
I272
aI501
aI367
atp1731
Rp1732
sI577
g1
((lp1733
I988
aI930
aI204
aI190
aI207
atp1734
Rp1735
sI578
g1
((lp1736
I482
aI59
aI370
atp1737
Rp1738
sI579
g1
((lp1739
I769
aI610
aI355
aI4
aI126
aI790
aI632
aI1181
aI990
atp1740
Rp1741
sI580
g1
((lp1742
I80
aI868
aI117
aI150
aI586
aI810
aI1055
atp1743
Rp1744
sI581
g1
((lp1745
I120
aI384
aI130
atp1746
Rp1747
sI582
g1
((lp1748
I129
aI477
aI15
atp1749
Rp1750
sI583
g1
((lp1751
I192
aI346
aI861
aI358
aI1189
atp1752
Rp1753
sI584
g1
((lp1754
I72
aI42
aI20
atp1755
Rp1756
sI585
g1
((lp1757
I128
aI369
aI192
aI909
aI1086
aI911
atp1758
Rp1759
sI586
g1
((lp1760
I251
aI580
aI294
aI1087
atp1761
Rp1762
sI587
g1
((lp1763
I1215
aI55
aI21
aI501
aI1199
atp1764
Rp1765
sI588
g1
((lp1766
I329
aI844
aI365
aI390
atp1767
Rp1768
sI589
g1
((lp1769
I1136
aI101
aI1144
aI559
aI909
aI431
atp1770
Rp1771
sI590
g1
((lp1772
I976
aI737
aI412
aI42
aI1228
aI173
aI1229
atp1773
Rp1774
sI591
g1
((lp1775
I383
aI573
aI5
atp1776
Rp1777
sI592
g1
((lp1778
I885
aI422
aI298
aI1067
aI174
aI1045
atp1779
Rp1780
sI593
g1
((lp1781
I368
aI480
aI888
aI632
aI170
aI733
aI1230
atp1782
Rp1783
sI594
g1
((lp1784
I32
aI946
aI55
aI779
aI316
aI943
atp1785
Rp1786
sI595
g1
((lp1787
I2
aI563
aI726
aI651
aI1107
aI189
atp1788
Rp1789
sI596
g1
((lp1790
I424
aI733
aI293
aI53
atp1791
Rp1792
sI597
g1
((lp1793
I568
aI242
aI802
aI493
atp1794
Rp1795
sI598
g1
((lp1796
I714
aI57
aI218
aI461
atp1797
Rp1798
sI599
g1
((lp1799
I1000
aI522
aI163
aI1068
aI45
atp1800
Rp1801
sI600
g1
((lp1802
I920
aI474
aI83
aI4
atp1803
Rp1804
sI601
g1
((lp1805
I2
aI478
aI111
atp1806
Rp1807
sI602
g1
((lp1808
I27
aI1076
aI61
aI398
atp1809
Rp1810
sI603
g1
((lp1811
I960
aI363
aI4
aI551
atp1812
Rp1813
sI604
g1
((lp1814
I104
aI277
aI85
atp1815
Rp1816
sI605
g1
((lp1817
I20
aI692
aI1070
aI54
aI7
atp1818
Rp1819
sI606
g1
((lp1820
I316
aI892
aI77
aI1134
aI245
atp1821
Rp1822
sI607
g1
((lp1823
I242
aI450
aI45
atp1824
Rp1825
sI608
g1
((lp1826
I880
aI554
aI118
aI31
atp1827
Rp1828
sI609
g1
((lp1829
I929
aI997
aI791
aI248
aI14
aI159
atp1830
Rp1831
sI610
g1
((lp1832
I639
aI579
aI4
aI151
atp1833
Rp1834
sI611
g1
((lp1835
I41
aI1071
aI37
aI565
atp1836
Rp1837
sI612
g1
((lp1838
I801
aI219
aI1110
aI334
aI30
atp1839
Rp1840
sI613
g1
((lp1841
I0
aI458
aI178
atp1842
Rp1843
sI614
g1
((lp1844
I1184
aI713
aI6
aI79
atp1845
Rp1846
sI615
g1
((lp1847
I1015
aI108
aI77
aI199
atp1848
Rp1849
sI616
g1
((lp1850
I96
aI282
aI28
aI1018
atp1851
Rp1852
sI617
g1
((lp1853
I718
aI529
aI77
aI246
atp1854
Rp1855
sI618
g1
((lp1856
I0
aI848
aI134
aI678
aI247
aI1078
atp1857
Rp1858
sI619
g1
((lp1859
I481
aI660
aI227
aI20
atp1860
Rp1861
sI620
g1
((lp1862
I103
aI821
aI483
aI413
aI727
atp1863
Rp1864
sI621
g1
((lp1865
I16
aI818
aI643
aI102
aI778
aI126
atp1866
Rp1867
sI622
g1
((lp1868
I753
aI54
aI1113
aI25
aI747
aI700
aI446
atp1869
Rp1870
sI623
g1
((lp1871
I1216
aI489
aI394
aI347
atp1872
Rp1873
sI624
g1
((lp1874
I1112
aI110
aI53
aI1062
aI119
atp1875
Rp1876
sI625
g1
((lp1877
I482
aI1119
aI516
aI421
aI854
aI858
aI843
aI629
atp1878
Rp1879
sI626
g1
((lp1880
I1
aI706
aI53
aI41
atp1881
Rp1882
sI627
g1
((lp1883
I1001
aI346
aI11
aI12
aI1167
atp1884
Rp1885
sI628
g1
((lp1886
I1178
aI857
aI346
aI283
aI298
aI1133
atp1887
Rp1888
sI629
g1
((lp1889
I625
aI188
aI820
aI327
atp1890
Rp1891
sI630
g1
((lp1892
I113
aI67
aI148
atp1893
Rp1894
sI631
g1
((lp1895
I300
aI452
aI79
atp1896
Rp1897
sI632
g1
((lp1898
I1057
aI579
aI71
aI1097
aI1165
aI681
aI1199
aI1041
aI593
aI1111
aI828
atp1899
Rp1900
sI633
g1
((lp1901
I480
aI810
aI437
aI167
atp1902
Rp1903
sI634
g1
((lp1904
I528
aI51
aI69
aI1096
aI1132
aI750
atp1905
Rp1906
sI635
g1
((lp1907
I701
aI67
aI138
aI106
aI670
aI685
atp1908
Rp1909
sI636
g1
((lp1910
I72
aI0
aI866
aI320
aI1177
atp1911
Rp1912
sI637
g1
((lp1913
I864
aI1120
aI98
aI438
aI55
aI1037
atp1914
Rp1915
sI638
g1
((lp1916
I0
aI785
aI554
aI566
atp1917
Rp1918
sI639
g1
((lp1919
I1069
aI145
aI610
aI899
aI701
aI333
aI831
atp1920
Rp1921
sI640
g1
((lp1922
I217
aI381
aI159
atp1923
Rp1924
sI641
g1
((lp1925
I385
aI1026
aI788
aI401
aI24
aI830
atp1926
Rp1927
sI642
g1
((lp1928
I176
aI163
aI300
atp1929
Rp1930
sI643
g1
((lp1931
I721
aI866
aI3
aI773
aI1046
aI697
aI621
aI303
atp1932
Rp1933
sI644
g1
((lp1934
I296
aI666
aI467
aI572
atp1935
Rp1936
sI645
g1
((lp1937
I991
aI317
aI166
aI207
atp1938
Rp1939
sI646
g1
((lp1940
I1128
aI324
aI53
aI431
atp1941
Rp1942
sI647
g1
((lp1943
I460
aI853
aI238
aI519
atp1944
Rp1945
sI648
g1
((lp1946
I128
aI403
aI687
aI227
atp1947
Rp1948
sI649
g1
((lp1949
I712
aI433
aI179
aI261
atp1950
Rp1951
sI650
g1
((lp1952
I352
aI145
aI542
atp1953
Rp1954
sI651
g1
((lp1955
I562
aI595
aI757
aI15
atp1956
Rp1957
sI652
g1
((lp1958
I187
aI420
aI1045
aI294
aI1019
atp1959
Rp1960
sI653
g1
((lp1961
I498
aI1130
aI969
aI842
aI44
aI298
atp1962
Rp1963
sI654
g1
((lp1964
I124
aI541
aI511
atp1965
Rp1966
sI655
g1
((lp1967
I251
aI20
aI959
aI55
atp1968
Rp1969
sI656
g1
((lp1970
I394
aI2
aI13
atp1971
Rp1972
sI657
g1
((lp1973
I68
aI140
aI860
aI557
aI950
atp1974
Rp1975
sI658
g1
((lp1976
I1088
aI339
aI21
aI872
aI763
aI143
atp1977
Rp1978
sI659
g1
((lp1979
I98
aI995
aI949
aI1064
aI767
aI110
aI239
atp1980
Rp1981
sI660
g1
((lp1982
I570
aI619
aI237
atp1983
Rp1984
sI661
g1
((lp1985
I233
aI12
aI828
aI161
atp1986
Rp1987
sI662
g1
((lp1988
I523
aI123
aI158
atp1989
Rp1990
sI663
g1
((lp1991
I0
aI53
aI774
aI527
atp1992
Rp1993
sI664
g1
((lp1994
I480
aI355
aI403
atp1995
Rp1996
sI665
g1
((lp1997
I312
aI17
aI61
aI721
atp1998
Rp1999
sI666
g1
((lp2000
I344
aI728
aI962
aI644
aI78
atp2001
Rp2002
sI667
g1
((lp2003
I336
aI33
aI221
atp2004
Rp2005
sI668
g1
((lp2006
I532
aI150
aI318
atp2007
Rp2008
sI669
g1
((lp2009
I404
aI110
aI231
atp2010
Rp2011
sI670
g1
((lp2012
I313
aI635
aI699
aI59
atp2013
Rp2014
sI671
g1
((lp2015
I242
aI187
aI429
atp2016
Rp2017
sI672
g1
((lp2018
I202
aI83
aI85
atp2019
Rp2020
sI673
g1
((lp2021
I408
aI719
aI53
aI413
atp2022
Rp2023
sI674
g1
((lp2024
I1024
aI2
aI435
aI255
atp2025
Rp2026
sI675
g1
((lp2027
I32
aI33
aI1104
aI65
atp2028
Rp2029
sI676
g1
((lp2030
I409
aI919
aI21
aI109
aI853
atp2031
Rp2032
sI677
g1
((lp2033
I496
aI201
aI257
atp2034
Rp2035
sI678
g1
((lp2036
I8
aI1025
aI618
aI987
aI484
atp2037
Rp2038
sI679
g1
((lp2039
I840
aI328
aI1139
aI1175
aI248
aI61
atp2040
Rp2041
sI680
g1
((lp2042
I10
aI301
aI151
atp2043
Rp2044
sI681
g1
((lp2045
I632
aI113
aI566
atp2046
Rp2047
sI682
g1
((lp2048
I0
aI9
aI426
atp2049
Rp2050
sI683
g1
((lp2051
I323
aI491
aI483
atp2052
Rp2053
sI684
g1
((lp2054
I298
aI494
aI87
atp2055
Rp2056
sI685
g1
((lp2057
I320
aI1233
aI635
aI461
atp2058
Rp2059
sI686
g1
((lp2060
I363
aI164
aI309
atp2061
Rp2062
sI687
g1
((lp2063
I32
aI648
aI108
atp2064
Rp2065
sI688
g1
((lp2066
I64
aI133
aI230
atp2067
Rp2068
sI689
g1
((lp2069
I17
aI196
aI271
atp2070
Rp2071
sI690
g1
((lp2072
I419
aI44
aI1134
aI279
atp2073
Rp2074
sI691
g1
((lp2075
I27
aI565
aI566
aI845
atp2076
Rp2077
sI692
g1
((lp2078
I51
aI605
aI486
aI855
atp2079
Rp2080
sI693
g1
((lp2081
I0
aI389
aI1158
aI231
atp2082
Rp2083
sI694
g1
((lp2084
I3
aI29
aI54
atp2085
Rp2086
sI695
g1
((lp2087
I491
aI20
aI1158
aI119
atp2088
Rp2089
sI696
g1
((lp2090
I0
aI282
aI3
aI758
atp2091
Rp2092
sI697
g1
((lp2093
I796
aI643
aI164
aI191
atp2094
Rp2095
sI698
g1
((lp2096
I216
aI25
aI210
aI1186
atp2097
Rp2098
sI699
g1
((lp2099
I313
aI550
aI1060
aI670
aI894
atp2100
Rp2101
sI700
g1
((lp2102
I58
aI29
aI622
aI1093
atp2103
Rp2104
sI701
g1
((lp2105
I2
aI635
aI639
atp2106
Rp2107
sI702
g1
((lp2108
I120
aI73
aI314
atp2109
Rp2110
sI703
g1
((lp2111
I785
aI378
aI74
aI410
atp2112
Rp2113
sI704
g1
((lp2114
I17
aI491
aI125
atp2115
Rp2116
sI705
g1
((lp2117
I784
aI33
aI214
aI1210
aI491
aI940
atp2118
Rp2119
sI706
g1
((lp2120
I1153
aI626
aI1174
aI714
aI476
aI954
aI270
atp2121
Rp2122
sI707
g1
((lp2123
I736
aI1203
aI276
aI6
aI491
aI1101
atp2124
Rp2125
sI708
g1
((lp2126
I480
aI0
aI387
aI900
atp2127
Rp2128
sI709
g1
((lp2129
I41
aI491
aI65
atp2130
Rp2131
sI710
g1
((lp2132
I1143
aI59
aI933
aI214
aI203
atp2133
Rp2134
sI711
g1
((lp2135
I0
aI401
aI1091
aI196
aI742
aI1068
atp2136
Rp2137
sI712
g1
((lp2138
I649
aI346
aI475
aI1071
atp2139
Rp2140
sI713
g1
((lp2141
I1122
aI398
aI614
aI295
atp2142
Rp2143
sI714
g1
((lp2144
I706
aI563
aI598
atp2145
Rp2146
sI715
g1
((lp2147
I49
aI178
aI1228
aI265
atp2148
Rp2149
sI716
g1
((lp2150
I165
aI360
aI809
aI874
aI1195
aI77
aI749
aI850
aI820
aI1194
atp2151
Rp2152
sI717
g1
((lp2153
I783
aI29
aI246
aI285
atp2154
Rp2155
sI718
g1
((lp2156
I875
aI617
aI67
aI52
atp2157
Rp2158
sI719
g1
((lp2159
I0
aI673
aI1082
aI379
atp2160
Rp2161
sI720
g1
((lp2162
I48
aI3
aI261
atp2163
Rp2164
sI721
g1
((lp2165
I425
aI643
aI903
aI665
atp2166
Rp2167
sI722
g1
((lp2168
I466
aI282
aI237
atp2169
Rp2170
sI723
g1
((lp2171
I168
aI345
aI895
aI113
atp2172
Rp2173
sI724
g1
((lp2174
I993
aI3
aI1046
aI166
aI151
atp2175
Rp2176
sI725
g1
((lp2177
I194
aI1151
aI170
aI118
aI941
atp2178
Rp2179
sI726
g1
((lp2180
I1209
aI2
aI595
aI37
atp2181
Rp2182
sI727
g1
((lp2183
I246
aI790
aI839
aI620
aI253
aI799
atp2184
Rp2185
sI728
g1
((lp2186
I489
aI666
aI1123
aI55
atp2187
Rp2188
sI729
g1
((lp2189
I144
aI84
aI14
atp2190
Rp2191
sI730
g1
((lp2192
I16
aI148
aI981
aI430
atp2193
Rp2194
sI731
g1
((lp2195
I160
aI233
aI301
atp2196
Rp2197
sI732
g1
((lp2198
I888
aI113
aI12
aI1121
aI49
atp2199
Rp2200
sI733
g1
((lp2201
I840
aI593
aI596
aI1221
aI78
atp2202
Rp2203
sI734
g1
((lp2204
I80
aI49
aI94
aI1191
atp2205
Rp2206
sI735
g1
((lp2207
I83
aI108
aI995
aI55
atp2208
Rp2209
sI736
g1
((lp2210
I56
aI376
aI1152
aI707
atp2211
Rp2212
sI737
g1
((lp2213
I0
aI9
aI590
atp2214
Rp2215
sI738
g1
((lp2216
I385
aI18
aI1155
aI1020
aI454
atp2217
Rp2218
sI739
g1
((lp2219
I52
aI418
aI108
atp2220
Rp2221
sI740
g1
((lp2222
I1
aI350
aI543
atp2223
Rp2224
sI741
g1
((lp2225
I753
aI519
aI69
aI151
atp2226
Rp2227
sI742
g1
((lp2228
I8
aI1096
aI546
aI711
atp2229
Rp2230
sI743
g1
((lp2231
I464
aI322
aI923
aI866
aI13
atp2232
Rp2233
sI744
g1
((lp2234
I324
aI228
aI937
aI345
atp2235
Rp2236
sI745
g1
((lp2237
I24
aI0
aI971
aI108
atp2238
Rp2239
sI746
g1
((lp2240
I458
aI91
aI298
atp2241
Rp2242
sI747
g1
((lp2243
I208
aI106
aI971
aI622
atp2244
Rp2245
sI748
g1
((lp2246
I424
aI4
aI29
aI758
atp2247
Rp2248
sI749
g1
((lp2249
I1116
aI17
aI31
aI716
aI1031
atp2250
Rp2251
sI750
g1
((lp2252
I634
aI53
aI54
aI917
atp2253
Rp2254
sI751
g1
((lp2255
I871
aI1
aI131
aI7
atp2256
Rp2257
sI752
g1
((lp2258
I188
aI93
aI998
aI13
atp2259
Rp2260
sI753
g1
((lp2261
I853
aI309
aI622
aI741
atp2262
Rp2263
sI754
g1
((lp2264
I145
aI28
aI70
atp2265
Rp2266
sI755
g1
((lp2267
I96
aI64
aI66
atp2268
Rp2269
sI756
g1
((lp2270
I232
aI1233
aI546
aI947
aI167
atp2271
Rp2272
sI757
g1
((lp2273
I408
aI433
aI651
atp2274
Rp2275
sI758
g1
((lp2276
I696
aI1011
aI228
aI824
aI1066
aI748
aI831
atp2277
Rp2278
sI759
g1
((lp2279
I24
aI57
aI968
aI541
aI808
atp2280
Rp2281
sI760
g1
((lp2282
I32
aI339
aI324
aI957
atp2283
Rp2284
sI761
g1
((lp2285
I1040
aI65
aI42
aI221
atp2286
Rp2287
sI762
g1
((lp2288
I540
aI914
aI28
aI877
aI534
atp2289
Rp2290
sI763
g1
((lp2291
I784
aI210
aI911
aI658
aI391
atp2292
Rp2293
sI764
g1
((lp2294
I217
aI227
aI77
atp2295
Rp2296
sI765
g1
((lp2297
I17
aI21
aI334
atp2298
Rp2299
sI766
g1
((lp2300
I28
aI381
aI367
atp2301
Rp2302
sI767
g1
((lp2303
I88
aI1088
aI362
aI827
aI659
atp2304
Rp2305
sI768
g1
((lp2306
I20
aI172
aI372
atp2307
Rp2308
sI769
g1
((lp2309
I121
aI579
aI59
atp2310
Rp2311
sI770
g1
((lp2312
I360
aI101
aI158
atp2313
Rp2314
sI771
g1
((lp2315
I17
aI1159
aI525
aI7
atp2316
Rp2317
sI772
g1
((lp2318
I224
aI161
aI331
atp2319
Rp2320
sI773
g1
((lp2321
I299
aI643
aI294
aI1143
atp2322
Rp2323
sI774
g1
((lp2324
I472
aI1148
aI461
aI663
atp2325
Rp2326
sI775
g1
((lp2327
I17
aI75
aI483
atp2328
Rp2329
sI776
g1
((lp2330
I536
aI67
aI917
aI31
atp2331
Rp2332
sI777
g1
((lp2333
I1
aI7
aI79
atp2334
Rp2335
sI778
g1
((lp2336
I296
aI498
aI621
aI946
atp2337
Rp2338
sI779
g1
((lp2339
I921
aI594
aI21
aI14
atp2340
Rp2341
sI780
g1
((lp2342
I477
aI85
aI63
atp2343
Rp2344
sI781
g1
((lp2345
I474
aI1085
aI860
aI226
aI405
atp2346
Rp2347
sI782
g1
((lp2348
I1116
aI1
aI52
aI558
atp2349
Rp2350
sI783
g1
((lp2351
I96
aI717
aI62
atp2352
Rp2353
sI784
g1
((lp2354
I705
aI763
aI76
atp2355
Rp2356
sI785
g1
((lp2357
I505
aI1043
aI638
aI703
atp2358
Rp2359
sI786
g1
((lp2360
I33
aI146
aI326
atp2361
Rp2362
sI787
g1
((lp2363
I96
aI817
aI91
aI404
atp2364
Rp2365
sI788
g1
((lp2366
I641
aI2
aI5
atp2367
Rp2368
sI789
g1
((lp2369
I212
aI429
aI295
atp2370
Rp2371
sI790
g1
((lp2372
I803
aI579
aI349
aI727
atp2373
Rp2374
sI791
g1
((lp2375
I432
aI609
aI85
atp2376
Rp2377
sI792
g1
((lp2378
I89
aI101
aI389
atp2379
Rp2380
sI793
g1
((lp2381
I154
aI475
aI357
atp2382
Rp2383
sI794
g1
((lp2384
I17
aI2
aI1230
aI78
atp2385
Rp2386
sI795
g1
((lp2387
I912
aI1142
aI38
aI136
aI1131
aI12
atp2388
Rp2389
sI796
g1
((lp2390
I697
aI354
aI4
aI815
atp2391
Rp2392
sI797
g1
((lp2393
I79
aI323
aI487
atp2394
Rp2395
sI798
g1
((lp2396
I1203
aI20
aI1236
aI1015
aI41
aI155
atp2397
Rp2398
sI799
g1
((lp2399
I1043
aI74
aI3
aI727
atp2400
Rp2401
sI800
g1
((lp2402
I32
aI24
aI133
atp2403
Rp2404
sI801
g1
((lp2405
I612
aI174
aI351
atp2406
Rp2407
sI802
g1
((lp2408
I3
aI950
aI5
aI597
aI815
atp2409
Rp2410
sI803
g1
((lp2411
I33
aI18
aI790
atp2412
Rp2413
sI804
g1
((lp2414
I27
aI155
aI13
atp2415
Rp2416
sI805
g1
((lp2417
I1104
aI68
aI5
aI414
atp2418
Rp2419
sI806
g1
((lp2420
I331
aI291
aI4
atp2421
Rp2422
sI807
g1
((lp2423
I1059
aI91
aI54
aI499
atp2424
Rp2425
sI808
g1
((lp2426
I759
aI141
aI327
atp2427
Rp2428
sI809
g1
((lp2429
I232
aI969
aI716
aI1129
aI567
atp2430
Rp2431
sI810
g1
((lp2432
I633
aI580
aI321
atp2433
Rp2434
sI811
g1
((lp2435
I65
aI28
aI229
atp2436
Rp2437
sI812
g1
((lp2438
I120
aI0
aI138
atp2439
Rp2440
sI813
g1
((lp2441
I984
aI377
aI1224
aI190
aI414
atp2442
Rp2443
sI814
g1
((lp2444
I281
aI370
aI245
atp2445
Rp2446
sI815
g1
((lp2447
I802
aI35
aI796
atp2448
Rp2449
sI816
g1
((lp2450
I553
aI71
aI169
atp2451
Rp2452
sI817
g1
((lp2453
I241
aI787
aI885
aI17
aI983
aI990
atp2454
Rp2455
sI818
g1
((lp2456
I865
aI290
aI516
aI621
atp2457
Rp2458
sI819
g1
((lp2459
I288
aI883
aI28
aI30
atp2460
Rp2461
sI820
g1
((lp2462
I220
aI716
aI629
atp2463
Rp2464
sI821
g1
((lp2465
I620
aI1221
aI302
aI7
atp2466
Rp2467
sI822
g1
((lp2468
I296
aI75
aI883
aI898
aI415
atp2469
Rp2470
sI823
g1
((lp2471
I186
aI23
aI79
atp2472
Rp2473
sI824
g1
((lp2474
I197
aI758
aI365
atp2475
Rp2476
sI825
g1
((lp2477
I234
aI43
atp2478
Rp2479
sI826
g1
((lp2480
I0
aI48
aI937
aI154
aI1101
aI1183
atp2481
Rp2482
sI827
g1
((lp2483
I1035
aI322
aI363
aI767
atp2484
Rp2485
sI828
g1
((lp2486
I632
aI1042
aI1035
aI661
aI53
atp2487
Rp2488
sI829
g1
((lp2489
I120
aI13
aI53
atp2490
Rp2491
sI830
g1
((lp2492
I641
aI2
aI227
aI1092
atp2493
Rp2494
sI831
g1
((lp2495
I486
aI758
aI639
atp2496
Rp2497
sI832
g1
((lp2498
I0
aI169
aI1099
aI301
atp2499
Rp2500
sI833
g1
((lp2501
I493
aI948
aI461
aI31
atp2502
Rp2503
sI834
g1
((lp2504
I112
aI274
aI5
atp2505
Rp2506
sI835
g1
((lp2507
I67
aI20
aI549
atp2508
Rp2509
sI836
g1
((lp2510
I87
aI526
aI15
atp2511
Rp2512
sI837
g1
((lp2513
I148
aI133
aI541
atp2514
Rp2515
sI838
g1
((lp2516
I113
aI499
aI524
atp2517
Rp2518
sI839
g1
((lp2519
I80
aI1160
aI188
aI727
atp2520
Rp2521
sI840
g1
((lp2522
I733
aI182
aI679
atp2523
Rp2524
sI841
g1
((lp2525
I459
aI166
aI475
atp2526
Rp2527
sI842
g1
((lp2528
I881
aI18
aI67
aI653
atp2529
Rp2530
sI843
g1
((lp2531
I625
aI851
aI133
aI7
atp2532
Rp2533
sI844
g1
((lp2534
I196
aI123
aI588
atp2535
Rp2536
sI845
g1
((lp2537
I73
aI691
aI980
aI505
atp2538
Rp2539
sI846
g1
((lp2540
I368
aI298
aI83
atp2541
Rp2542
sI847
g1
((lp2543
I217
aI402
aI1114
aI6
atp2544
Rp2545
sI848
g1
((lp2546
I618
aI165
aI21
atp2547
Rp2548
sI849
g1
((lp2549
I432
aI409
aI125
aI857
atp2550
Rp2551
sI850
g1
((lp2552
I884
aI474
aI716
aI442
atp2553
Rp2554
sI851
g1
((lp2555
I944
aI409
aI843
aI884
aI21
atp2556
Rp2557
sI852
g1
((lp2558
I1147
aI363
aI246
aI7
atp2559
Rp2560
sI853
g1
((lp2561
I753
aI676
aI647
atp2562
Rp2563
sI854
g1
((lp2564
I936
aI625
aI355
aI179
atp2565
Rp2566
sI855
g1
((lp2567
I512
aI1209
aI692
aI190
aI1150
atp2568
Rp2569
sI856
g1
((lp2570
I394
aI283
aI28
atp2571
Rp2572
sI857
g1
((lp2573
I96
aI849
aI628
atp2574
Rp2575
sI858
g1
((lp2576
I625
aI404
aI461
atp2577
Rp2578
sI859
g1
((lp2579
I201
aI250
aI299
aI916
aI1037
atp2580
Rp2581
sI860
g1
((lp2582
I657
aI1147
aI781
aI557
atp2583
Rp2584
sI861
g1
((lp2585
I583
aI92
aI375
atp2586
Rp2587
sI862
g1
((lp2588
I553
aI4
aI81
atp2589
Rp2590
sI863
g1
((lp2591
I378
aI27
aI278
atp2592
Rp2593
sI864
g1
((lp2594
I257
aI436
aI637
atp2595
Rp2596
sI865
g1
((lp2597
I968
aI818
aI507
aI333
atp2598
Rp2599
sI866
g1
((lp2600
I643
aI636
aI743
atp2601
Rp2602
sI867
g1
((lp2603
I217
aI131
aI47
atp2604
Rp2605
sI868
g1
((lp2606
I580
aI517
aI950
aI159
atp2607
Rp2608
sI869
g1
((lp2609
I9
aI434
aI161
atp2610
Rp2611
sI870
g1
((lp2612
I168
aI218
aI5
atp2613
Rp2614
sI871
g1
((lp2615
I17
aI563
aI873
aI751
atp2616
Rp2617
sI872
g1
((lp2618
I1188
aI658
aI4
aI262
atp2619
Rp2620
sI873
g1
((lp2621
I953
aI1018
aI68
aI382
aI871
atp2622
Rp2623
sI874
g1
((lp2624
I716
aI334
aI287
atp2625
Rp2626
sI875
g1
((lp2627
I395
aI718
aI295
atp2628
Rp2629
sI876
g1
((lp2630
I240
aI14
aI343
atp2631
Rp2632
sI877
g1
((lp2633
I762
aI467
aI902
aI110
atp2634
Rp2635
sI878
g1
((lp2636
I312
aI146
aI1182
aI534
atp2637
Rp2638
sI879
g1
((lp2639
I25
aI962
aI548
aI236
atp2640
Rp2641
sI880
g1
((lp2642
I608
aI4
aI102
atp2643
Rp2644
sI881
g1
((lp2645
I842
aI563
aI882
aI334
atp2646
Rp2647
sI882
g1
((lp2648
I881
aI378
aI427
atp2649
Rp2650
sI883
g1
((lp2651
I960
aI257
aI819
aI822
atp2652
Rp2653
sI884
g1
((lp2654
I24
aI850
aI851
aI1108
aI1170
atp2655
Rp2656
sI885
g1
((lp2657
I592
aI817
aI355
aI1120
atp2658
Rp2659
sI886
g1
((lp2660
I3
aI292
aI125
aI902
atp2661
Rp2662
sI887
g1
((lp2663
I405
aI198
aI175
atp2664
Rp2665
sI888
g1
((lp2666
I593
aI732
aI31
atp2667
Rp2668
sI889
g1
((lp2669
I96
aI67
aI53
atp2670
Rp2671
sI890
g1
((lp2672
I96
aI1
aI33
atp2673
Rp2674
sI891
g1
((lp2675
I400
aI339
aI300
atp2676
Rp2677
sI892
g1
((lp2678
I441
aI90
aI1100
aI606
atp2679
Rp2680
sI893
g1
((lp2681
I257
aI1227
aI4
aI374
atp2682
Rp2683
sI894
g1
((lp2684
I699
aI524
aI133
atp2685
Rp2686
sI895
g1
((lp2687
I3
aI907
aI182
aI723
atp2688
Rp2689
sI896
g1
((lp2690
I385
aI92
aI4
atp2691
Rp2692
sI897
g1
((lp2693
I1
aI286
aI567
atp2694
Rp2695
sI898
g1
((lp2696
I1133
aI68
aI1117
aI822
aI159
atp2697
Rp2698
sI899
g1
((lp2699
I985
aI98
aI237
aI1170
aI639
atp2700
Rp2701
sI900
g1
((lp2702
I168
aI473
aI708
atp2703
Rp2704
sI901
g1
((lp2705
I56
aI1227
aI182
aI431
atp2706
Rp2707
sI902
g1
((lp2708
I1181
aI877
aI886
aI151
atp2709
Rp2710
sI903
g1
((lp2711
I721
aI1187
aI85
aI159
atp2712
Rp2713
sI904
g1
((lp2714
I148
aI5
aI62
atp2715
Rp2716
sI905
g1
((lp2717
I16
aI82
aI95
atp2718
Rp2719
sI906
g1
((lp2720
I50
aI11
aI1190
aI119
atp2721
Rp2722
sI907
g1
((lp2723
I88
aI154
aI895
atp2724
Rp2725
sI908
g1
((lp2726
I303
aI547
aI71
atp2727
Rp2728
sI909
g1
((lp2729
I585
aI75
aI589
aI934
atp2730
Rp2731
sI910
g1
((lp2732
I17
aI34
aI1154
aI481
atp2733
Rp2734
sI911
g1
((lp2735
I40
aI585
aI763
aI1009
atp2736
Rp2737
sI912
g1
((lp2738
I536
aI1136
aI795
aI1211
aI71
atp2739
Rp2740
sI913
g1
((lp2741
I40
aI522
aI77
atp2742
Rp2743
sI914
g1
((lp2744
I320
aI762
aI923
aI118
atp2745
Rp2746
sI915
g1
((lp2747
I384
aI74
aI228
atp2748
Rp2749
sI916
g1
((lp2750
I859
aI404
aI5
atp2751
Rp2752
sI917
g1
((lp2753
I776
aI750
aI79
atp2754
Rp2755
sI918
g1
((lp2756
I545
aI1159
aI49
aI62
aI977
atp2757
Rp2758
sI919
g1
((lp2759
I676
aI21
aI343
atp2760
Rp2761
sI920
g1
((lp2762
I600
aI301
aI470
atp2763
Rp2764
sI921
g1
((lp2765
I779
aI244
aI213
atp2766
Rp2767
sI922
g1
((lp2768
I0
aI259
aI1077
aI70
atp2769
Rp2770
sI923
g1
((lp2771
I1208
aI1
aI914
aI743
atp2772
Rp2773
sI924
g1
((lp2774
I986
aI331
aI276
aI143
atp2775
Rp2776
sI925
g1
((lp2777
I155
aI69
aI143
atp2778
Rp2779
sI926
g1
((lp2780
I129
aI3
aI1059
aI422
aI1009
atp2781
Rp2782
sI927
g1
((lp2783
I19
aI69
aI77
atp2784
Rp2785
sI928
g1
((lp2786
I554
aI6
aI375
atp2787
Rp2788
sI929
g1
((lp2789
I609
aI1131
aI108
aI69
aI1013
atp2790
Rp2791
sI930
g1
((lp2792
I577
aI331
aI1
atp2793
Rp2794
sI931
g1
((lp2795
I966
aI394
aI74
aI78
atp2796
Rp2797
sI932
g1
((lp2798
I160
aI65
aI3
aI1142
atp2799
Rp2800
sI933
g1
((lp2801
I11
aI221
aI710
atp2802
Rp2803
sI934
g1
((lp2804
I17
aI909
aI326
atp2805
Rp2806
sI935
g1
((lp2807
I531
aI523
aI1005
aI54
atp2808
Rp2809
sI936
g1
((lp2810
I298
aI1027
aI1179
aI854
aI135
atp2811
Rp2812
sI937
g1
((lp2813
I744
aI826
aI38
aI1127
atp2814
Rp2815
sI938
g1
((lp2816
I138
aI45
aI303
atp2817
Rp2818
sI939
g1
((lp2819
I49
aI235
aI302
atp2820
Rp2821
sI940
g1
((lp2822
I705
aI12
atp2823
Rp2824
sI941
g1
((lp2825
I725
aI446
aI183
atp2826
Rp2827
sI942
g1
((lp2828
I24
aI377
aI228
atp2829
Rp2830
sI943
g1
((lp2831
I1040
aI594
aI323
aI2
atp2832
Rp2833
sI944
g1
((lp2834
I1024
aI186
aI851
aI68
atp2835
Rp2836
sI945
g1
((lp2837
I106
aI205
aI565
atp2838
Rp2839
sI946
g1
((lp2840
I778
aI594
aI326
atp2841
Rp2842
sI947
g1
((lp2843
I555
aI756
aI1159
aI375
atp2844
Rp2845
sI948
g1
((lp2846
I833
aI450
aI1038
aI254
atp2847
Rp2848
sI949
g1
((lp2849
I0
aI259
aI659
atp2850
Rp2851
sI950
g1
((lp2852
I657
aI802
aI1123
aI868
aI1033
atp2853
Rp2854
sI951
g1
((lp2855
I27
aI342
aI159
atp2856
Rp2857
sI952
g1
((lp2858
I18
aI110
aI30
atp2859
Rp2860
sI953
g1
((lp2861
I873
aI2
aI111
atp2862
Rp2863
sI954
g1
((lp2864
I409
aI706
aI1135
aI23
atp2865
Rp2866
sI955
g1
((lp2867
I88
aI1188
aI498
aI20
atp2868
Rp2869
sI956
g1
((lp2870
I529
aI21
aI1
atp2871
Rp2872
sI957
g1
((lp2873
I384
aI760
aI433
atp2874
Rp2875
sI958
g1
((lp2876
I360
aI41
aI316
atp2877
Rp2878
sI959
g1
((lp2879
I241
aI467
aI1188
aI655
atp2880
Rp2881
sI960
g1
((lp2882
I883
aI27
aI603
atp2883
Rp2884
sI961
g1
((lp2885
I419
aI44
aI31
atp2886
Rp2887
sI962
g1
((lp2888
I73
aI666
aI879
atp2889
Rp2890
sI963
g1
((lp2891
I554
aI476
aI110
atp2892
Rp2893
sI964
g1
((lp2894
I3
aI403
aI7
atp2895
Rp2896
sI965
g1
((lp2897
I336
aI459
aI311
atp2898
Rp2899
sI966
g1
((lp2900
I931
aI12
aI271
atp2901
Rp2902
sI967
g1
((lp2903
I73
aI83
aI476
atp2904
Rp2905
sI968
g1
((lp2906
I865
aI467
aI759
atp2907
Rp2908
sI969
g1
((lp2909
I809
aI147
aI653
atp2910
Rp2911
sI970
g1
((lp2912
I552
aI104
aI0
atp2913
Rp2914
sI971
g1
((lp2915
I745
aI1034
aI747
aI1154
aI223
atp2916
Rp2917
sI972
g1
((lp2918
I304
aI116
aI1061
aI207
atp2919
Rp2920
sI973
g1
((lp2921
I251
aI460
aI182
aI1171
atp2922
Rp2923
sI974
g1
((lp2924
I16
aI17
aI1034
aI1069
aI545
atp2925
Rp2926
sI975
g1
((lp2927
I394
aI7
aI1234
aI214
aI1223
atp2928
Rp2929
sI976
g1
((lp2930
I3
aI549
aI590
atp2931
Rp2932
sI977
g1
((lp2933
I66
aI331
aI1124
aI918
atp2934
Rp2935
sI978
g1
((lp2936
I263
aI158
aI159
atp2937
Rp2938
sI979
g1
((lp2939
I33
aI59
aI158
atp2940
Rp2941
sI980
g1
((lp2942
I1197
aI1082
aI244
aI437
aI845
atp2943
Rp2944
sI981
g1
((lp2945
I730
aI37
aI247
atp2946
Rp2947
sI982
g1
((lp2948
I145
aI2
aI300
aI1181
atp2949
Rp2950
sI983
g1
((lp2951
I817
aI90
aI27
aI1226
atp2952
Rp2953
sI984
g1
((lp2954
I4
aI340
aI813
atp2955
Rp2956
sI985
g1
((lp2957
I0
aI432
aI899
atp2958
Rp2959
sI986
g1
((lp2960
I1220
aI1090
aI387
aI924
aI463
atp2961
Rp2962
sI987
g1
((lp2963
I338
aI1187
aI468
aI678
atp2964
Rp2965
sI988
g1
((lp2966
I552
aI577
aI16
atp2967
Rp2968
sI989
g1
((lp2969
I104
aI89
aI556
atp2970
Rp2971
sI990
g1
((lp2972
I817
aI579
aI545
atp2973
Rp2974
sI991
g1
((lp2975
I1063
aI69
aI110
aI645
atp2976
Rp2977
sI992
g1
((lp2978
I1
aI100
aI247
atp2979
Rp2980
sI993
g1
((lp2981
I51
aI724
aI54
atp2982
Rp2983
sI994
g1
((lp2984
I1092
aI31
aI503
aI95
atp2985
Rp2986
sI995
g1
((lp2987
I34
aI659
aI1171
aI735
atp2988
Rp2989
sI996
g1
((lp2990
I289
aI378
aI82
atp2991
Rp2992
sI997
g1
((lp2993
I184
aI609
aI306
atp2994
Rp2995
sI998
g1
((lp2996
I752
aI296
aI346
atp2997
Rp2998
sI999
g1
((lp2999
I88
aI244
aI557
aI1014
atp3000
Rp3001
sI1000
g1
((lp3002
I41
aI28
aI599
atp3003
Rp3004
sI1001
g1
((lp3005
I154
aI627
aI20
atp3006
Rp3007
sI1002
g1
((lp3008
I176
aI427
aI46
atp3009
Rp3010
sI1003
g1
((lp3011
I1
aI476
aI349
atp3012
Rp3013
sI1004
g1
((lp3014
I136
aI43
aI29
atp3015
Rp3016
sI1005
g1
((lp3017
I385
aI935
aI321
atp3018
Rp3019
sI1006
g1
((lp3020
I302
aI206
aI238
atp3021
Rp3022
sI1007
g1
((lp3023
I423
aI293
aI21
atp3024
Rp3025
sI1008
g1
((lp3026
I211
aI77
aI518
atp3027
Rp3028
sI1009
g1
((lp3029
I94
aI926
aI911
atp3030
Rp3031
sI1010
g1
((lp3032
I363
aI253
aI141
atp3033
Rp3034
sI1011
g1
((lp3035
I312
aI758
aI375
atp3036
Rp3037
sI1012
g1
((lp3038
I0
aI228
aI405
atp3039
Rp3040
sI1013
g1
((lp3041
I480
aI929
aI205
atp3042
Rp3043
sI1014
g1
((lp3044
I7
aI452
aI999
atp3045
Rp3046
sI1015
g1
((lp3047
I461
aI798
aI615
atp3048
Rp3049
sI1016
g1
((lp3050
I106
aI244
aI549
atp3051
Rp3052
sI1017
g1
((lp3053
I113
aI4
aI421
aI1125
atp3054
Rp3055
sI1018
g1
((lp3056
I616
aI169
aI873
atp3057
Rp3058
sI1019
g1
((lp3059
I652
aI1083
aI84
aI1061
aI247
atp3060
Rp3061
sI1020
g1
((lp3062
I738
aI1219
aI4
aI239
atp3063
Rp3064
sI1021
g1
((lp3065
I1
aI487
aI97
atp3066
Rp3067
sI1022
g1
((lp3068
I68
aI346
aI300
atp3069
Rp3070
sI1023
g1
((lp3071
I177
aI27
aI140
atp3072
Rp3073
sI1024
g1
((lp3074
I944
aI674
aI199
atp3075
Rp3076
sI1025
g1
((lp3077
I362
aI678
aI31
atp3078
Rp3079
sI1026
g1
((lp3080
I641
aI394
aI126
atp3081
Rp3082
sI1027
g1
((lp3083
I128
aI936
aI159
atp3084
Rp3085
sI1028
g1
((lp3086
I0
aI1153
aI35
aI1187
aI135
atp3087
Rp3088
sI1029
g1
((lp3089
I115
aI14
aI335
atp3090
Rp3091
sI1030
g1
((lp3092
I538
aI71
aI247
atp3093
Rp3094
sI1031
g1
((lp3095
I115
aI749
aI422
atp3096
Rp3097
sI1032
g1
((lp3098
I12
aI533
aI310
atp3099
Rp3100
sI1033
g1
((lp3101
I297
aI3
aI950
atp3102
Rp3103
sI1034
g1
((lp3104
I971
aI532
aI974
atp3105
Rp3106
sI1035
g1
((lp3107
I1099
aI827
aI828
aI31
atp3108
Rp3109
sI1036
g1
((lp3110
I457
aI123
aI425
atp3111
Rp3112
sI1037
g1
((lp3113
I859
aI637
aI158
atp3114
Rp3115
sI1038
g1
((lp3116
I1
aI2
aI948
atp3117
Rp3118
sI1039
g1
((lp3119
I2
aI202
aI30
atp3120
Rp3121
sI1040
g1
((lp3122
I369
aI761
aI943
atp3123
Rp3124
sI1041
g1
((lp3125
I40
aI632
aI82
atp3126
Rp3127
sI1042
g1
((lp3128
I507
aI828
aI110
atp3129
Rp3130
sI1043
g1
((lp3131
I785
aI561
aI799
atp3132
Rp3133
sI1044
g1
((lp3134
I523
aI6
aI475
atp3135
Rp3136
sI1045
g1
((lp3137
I592
aI3
aI652
atp3138
Rp3139
sI1046
g1
((lp3140
I643
aI724
aI29
atp3141
Rp3142
sI1047
g1
((lp3143
I2
aI282
aI350
atp3144
Rp3145
sI1048
g1
((lp3146
I3
aI1155
aI477
aI143
atp3147
Rp3148
sI1049
g1
((lp3149
I24
aI1169
aI7
atp3150
Rp3151
sI1050
g1
((lp3152
I192
aI25
aI83
atp3153
Rp3154
sI1051
g1
((lp3155
I17
aI20
aI484
atp3156
Rp3157
sI1052
g1
((lp3158
I394
aI37
aI54
atp3159
Rp3160
sI1053
g1
((lp3161
I331
aI93
aI503
atp3162
Rp3163
sI1054
g1
((lp3164
I289
aI202
aI6
atp3165
Rp3166
sI1055
g1
((lp3167
I580
aI52
aI141
atp3168
Rp3169
sI1056
g1
((lp3170
I120
aI419
aI21
atp3171
Rp3172
sI1057
g1
((lp3173
I632
aI227
aI38
atp3174
Rp3175
sI1058
g1
((lp3176
I1224
aI4
aI165
aI135
atp3177
Rp3178
sI1059
g1
((lp3179
I52
aI926
aI807
atp3180
Rp3181
sI1060
g1
((lp3182
I90
aI699
aI420
atp3183
Rp3184
sI1061
g1
((lp3185
I0
aI1019
aI972
atp3186
Rp3187
sI1062
g1
((lp3188
I304
aI624
aI12
atp3189
Rp3190
sI1063
g1
((lp3191
I370
aI491
aI991
atp3192
Rp3193
sI1064
g1
((lp3194
I274
aI83
aI659
atp3195
Rp3196
sI1065
g1
((lp3197
I126
aI150
aI135
atp3198
Rp3199
sI1066
g1
((lp3200
I520
aI70
aI758
atp3201
Rp3202
sI1067
g1
((lp3203
I592
aI497
aI13
atp3204
Rp3205
sI1068
g1
((lp3206
I711
aI399
aI1110
aI599
atp3207
Rp3208
sI1069
g1
((lp3209
I433
aI974
aI639
atp3210
Rp3211
sI1070
g1
((lp3212
I77
aI46
aI605
atp3213
Rp3214
sI1071
g1
((lp3215
I712
aI611
aI1213
aI343
atp3216
Rp3217
sI1072
g1
((lp3218
I531
aI4
aI63
atp3219
Rp3220
sI1073
g1
((lp3221
I135
aI4
aI1126
aI367
atp3222
Rp3223
sI1074
g1
((lp3224
I36
aI227
aI52
atp3225
Rp3226
sI1075
g1
((lp3227
I340
aI501
aI423
atp3228
Rp3229
sI1076
g1
((lp3230
I49
aI602
aI231
atp3231
Rp3232
sI1077
g1
((lp3233
I217
aI922
aI25
atp3234
Rp3235
sI1078
g1
((lp3236
I618
aI244
aI237
atp3237
Rp3238
sI1079
g1
((lp3239
I505
aI52
aI133
atp3240
Rp3241
sI1080
g1
((lp3242
I72
aI1168
aI203
aI7
atp3243
Rp3244
sI1081
g1
((lp3245
I289
aI571
aI529
atp3246
Rp3247
sI1082
g1
((lp3248
I23
aI980
aI719
atp3249
Rp3250
sI1083
g1
((lp3251
I1019
aI77
aI54
atp3252
Rp3253
sI1084
g1
((lp3254
I0
aI480
aI494
atp3255
Rp3256
sI1085
g1
((lp3257
I84
aI460
aI781
atp3258
Rp3259
sI1086
g1
((lp3260
I80
aI145
aI585
atp3261
Rp3262
sI1087
g1
((lp3263
I586
aI331
aI12
atp3264
Rp3265
sI1088
g1
((lp3266
I658
aI12
aI767
atp3267
Rp3268
sI1089
g1
((lp3269
I419
aI228
aI30
atp3270
Rp3271
sI1090
g1
((lp3272
I464
aI1
aI986
atp3273
Rp3274
sI1091
g1
((lp3275
I3
aI300
aI711
atp3276
Rp3277
sI1092
g1
((lp3278
I89
aI994
aI1203
aI830
atp3279
Rp3280
sI1093
g1
((lp3281
I168
aI291
aI700
atp3282
Rp3283
sI1094
g1
((lp3284
I425
aI84
aI549
atp3285
Rp3286
sI1095
g1
((lp3287
I387
aI212
aI427
atp3288
Rp3289
sI1096
g1
((lp3290
I634
aI462
aI742
atp3291
Rp3292
sI1097
g1
((lp3293
I632
aI305
aI3
atp3294
Rp3295
sI1098
g1
((lp3296
I216
aI4
aI285
atp3297
Rp3298
sI1099
g1
((lp3299
I832
aI42
aI1035
atp3300
Rp3301
sI1100
g1
((lp3302
I224
aI892
aI158
atp3303
Rp3304
sI1101
g1
((lp3305
I1112
aI826
aI707
aI554
atp3306
Rp3307
sI1102
g1
((lp3308
I65
aI84
aI270
atp3309
Rp3310
sI1103
g1
((lp3311
I153
aI68
aI334
atp3312
Rp3313
sI1104
g1
((lp3314
I65
aI675
aI805
aI1238
atp3315
Rp3316
sI1105
g1
((lp3317
I0
aI4
aI462
atp3318
Rp3319
sI1106
g1
((lp3320
I10
aI486
aI351
atp3321
Rp3322
sI1107
g1
((lp3323
I595
aI68
aI511
atp3324
Rp3325
sI1108
g1
((lp3326
I144
aI884
aI1235
aI28
atp3327
Rp3328
sI1109
g1
((lp3329
I1
aI555
aI31
atp3330
Rp3331
sI1110
g1
((lp3332
I612
aI1068
aI429
atp3333
Rp3334
sI1111
g1
((lp3335
I632
aI128
aI216
atp3336
Rp3337
sI1112
g1
((lp3338
I624
aI4
aI1101
atp3339
Rp3340
sI1113
g1
((lp3341
I0
aI523
aI622
atp3342
Rp3343
sI1114
g1
((lp3344
I202
aI474
aI847
atp3345
Rp3346
sI1115
g1
((lp3347
I160
aI368
aI131
atp3348
Rp3349
sI1116
g1
((lp3350
I219
aI749
aI782
atp3351
Rp3352
sI1117
g1
((lp3353
I49
aI514
aI898
atp3354
Rp3355
sI1118
g1
((lp3356
I13
aI135
atp3357
Rp3358
sI1119
g1
((lp3359
I1160
aI625
aI1225
aI77
aI287
atp3360
Rp3361
sI1120
g1
((lp3362
I1161
aI45
aI637
aI885
atp3363
Rp3364
sI1121
g1
((lp3365
I0
aI8
aI732
atp3366
Rp3367
sI1122
g1
((lp3368
I713
aI178
aI355
atp3369
Rp3370
sI1123
g1
((lp3371
I728
aI1136
aI51
aI950
atp3372
Rp3373
sI1124
g1
((lp3374
I104
aI977
aI3
atp3375
Rp3376
sI1125
g1
((lp3377
I1017
aI4
aI54
atp3378
Rp3379
sI1126
g1
((lp3380
I0
aI1073
aI16
atp3381
Rp3382
sI1127
g1
((lp3383
I1176
aI937
aI3
aI284
atp3384
Rp3385
sI1128
g1
((lp3386
I138
aI379
aI646
atp3387
Rp3388
sI1129
g1
((lp3389
I404
aI396
aI809
atp3390
Rp3391
sI1130
g1
((lp3392
I1
aI653
aI374
atp3393
Rp3394
sI1131
g1
((lp3395
I89
aI795
aI929
atp3396
Rp3397
sI1132
g1
((lp3398
I136
aI634
aI35
atp3399
Rp3400
sI1133
g1
((lp3401
I330
aI628
aI898
atp3402
Rp3403
sI1134
g1
((lp3404
I690
aI150
aI606
atp3405
Rp3406
sI1135
g1
((lp3407
I268
aI954
aI140
aI1170
atp3408
Rp3409
sI1136
g1
((lp3410
I912
aI1123
aI589
atp3411
Rp3412
sI1137
g1
((lp3413
I1206
aI61
aI78
aI503
atp3414
Rp3415
sI1138
g1
((lp3416
I65
aI2
aI534
atp3417
Rp3418
sI1139
g1
((lp3419
I679
aI302
aI199
atp3420
Rp3421
sI1140
g1
((lp3422
I289
aI260
aI309
atp3423
Rp3424
sI1141
g1
((lp3425
I139
aI239
aI567
atp3426
Rp3427
sI1142
g1
((lp3428
I498
aI795
aI932
atp3429
Rp3430
sI1143
g1
((lp3431
I113
aI773
aI710
atp3432
Rp3433
sI1144
g1
((lp3434
I185
aI1218
aI284
aI589
atp3435
Rp3436
sI1145
g1
((lp3437
I313
aI300
aI54
atp3438
Rp3439
sI1146
g1
((lp3440
I504
aI529
aI165
atp3441
Rp3442
sI1147
g1
((lp3443
I160
aI860
aI852
atp3444
Rp3445
sI1148
g1
((lp3446
I65
aI774
aI214
atp3447
Rp3448
sI1149
g1
((lp3449
I65
aI3
aI4
atp3450
Rp3451
sI1150
g1
((lp3452
I289
aI182
aI855
atp3453
Rp3454
sI1151
g1
((lp3455
I725
aI326
aI367
atp3456
Rp3457
sI1152
g1
((lp3458
I736
aI457
aI1229
aI502
atp3459
Rp3460
sI1153
g1
((lp3461
I706
aI1028
aI309
atp3462
Rp3463
sI1154
g1
((lp3464
I1174
aI971
aI37
aI910
atp3465
Rp3466
sI1155
g1
((lp3467
I1048
aI738
aI458
atp3468
Rp3469
sI1156
g1
((lp3470
I49
aI202
aI323
atp3471
Rp3472
sI1157
g1
((lp3473
I344
aI101
aI135
atp3474
Rp3475
sI1158
g1
((lp3476
I695
aI693
aI543
atp3477
Rp3478
sI1159
g1
((lp3479
I771
aI947
aI918
atp3480
Rp3481
sI1160
g1
((lp3482
I410
aI839
aI1119
atp3483
Rp3484
sI1161
g1
((lp3485
I8
aI104
aI1120
atp3486
Rp3487
sI1162
g1
((lp3488
I9
aI2
aI4
atp3489
Rp3490
sI1163
g1
((lp3491
I72
aI461
aI414
atp3492
Rp3493
sI1164
g1
((lp3494
I563
aI29
aI349
atp3495
Rp3496
sI1165
g1
((lp3497
I632
aI1
aI404
atp3498
Rp3499
sI1166
g1
((lp3500
I450
aI413
aI62
atp3501
Rp3502
sI1167
g1
((lp3503
I3
aI627
aI285
atp3504
Rp3505
sI1168
g1
((lp3506
I1080
aI25
aI68
atp3507
Rp3508
sI1169
g1
((lp3509
I1049
aI186
aI211
aI1231
atp3510
Rp3511
sI1170
g1
((lp3512
I899
aI884
aI1135
atp3513
Rp3514
sI1171
g1
((lp3515
I995
aI973
aI150
atp3516
Rp3517
sI1172
g1
((lp3518
I450
aI4
aI6
atp3519
Rp3520
sI1173
g1
((lp3521
I16
aI10
aI429
atp3522
Rp3523
sI1174
g1
((lp3524
I706
aI1154
aI295
atp3525
Rp3526
sI1175
g1
((lp3527
I410
aI107
aI679
atp3528
Rp3529
sI1176
g1
((lp3530
I123
aI294
aI1127
atp3531
Rp3532
sI1177
g1
((lp3533
I394
aI636
aI199
atp3534
Rp3535
sI1178
g1
((lp3536
I11
aI628
aI54
atp3537
Rp3538
sI1179
g1
((lp3539
I936
aI48
aI214
aI1223
atp3540
Rp3541
sI1180
g1
((lp3542
I89
aI339
aI526
atp3543
Rp3544
sI1181
g1
((lp3545
I579
aI902
aI982
atp3546
Rp3547
sI1182
g1
((lp3548
I66
aI134
aI878
atp3549
Rp3550
sI1183
g1
((lp3551
I369
aI826
aI148
atp3552
Rp3553
sI1184
g1
((lp3554
I294
aI614
aI558
atp3555
Rp3556
sI1185
g1
((lp3557
I1220
aI255
aI228
aI79
atp3558
Rp3559
sI1186
g1
((lp3560
I162
aI698
aI199
atp3561
Rp3562
sI1187
g1
((lp3563
I987
aI1028
aI903
atp3564
Rp3565
sI1188
g1
((lp3566
I872
aI955
aI959
atp3567
Rp3568
sI1189
g1
((lp3569
I313
aI343
aI583
atp3570
Rp3571
sI1190
g1
((lp3572
I152
aI1
aI906
atp3573
Rp3574
sI1191
g1
((lp3575
I563
aI525
aI734
atp3576
Rp3577
sI1192
g1
((lp3578
I232
aI2
aI388
atp3579
Rp3580
sI1193
g1
((lp3581
I4
aI308
aI446
atp3582
Rp3583
sI1194
g1
((lp3584
I138
aI716
aI226
atp3585
Rp3586
sI1195
g1
((lp3587
I3
aI716
aI453
atp3588
Rp3589
sI1196
g1
((lp3590
I80
aI75
aI20
atp3591
Rp3592
sI1197
g1
((lp3593
I177
aI980
aI541
atp3594
Rp3595
sI1198
g1
((lp3596
I11
aI517
aI30
atp3597
Rp3598
sI1199
g1
((lp3599
I632
aI587
aI422
atp3600
Rp3601
sI1200
g1
((lp3602
I49
aI54
aI391
atp3603
Rp3604
sI1201
g1
((lp3605
I128
aI49
aI101
atp3606
Rp3607
sI1202
g1
((lp3608
I482
aI170
aI357
atp3609
Rp3610
sI1203
g1
((lp3611
I707
aI1092
aI798
atp3612
Rp3613
sI1204
g1
((lp3614
I302
aI22
aI525
atp3615
Rp3616
sI1205
g1
((lp3617
I440
aI33
aI300
atp3618
Rp3619
sI1206
g1
((lp3620
I1137
aI522
aI238
atp3621
Rp3622
sI1207
g1
((lp3623
I332
aI396
atp3624
Rp3625
sI1208
g1
((lp3626
I33
aI923
aI1221
aI334
atp3627
Rp3628
sI1209
g1
((lp3629
I86
aI726
aI855
atp3630
Rp3631
sI1210
g1
((lp3632
I705
aI49
aI375
atp3633
Rp3634
sI1211
g1
((lp3635
I912
aI128
aI23
atp3636
Rp3637
sI1212
g1
((lp3638
I259
aI517
aI278
atp3639
Rp3640
sI1213
g1
((lp3641
I361
aI149
aI1071
atp3642
Rp3643
sI1214
g1
((lp3644
I272
aI28
aI5
atp3645
Rp3646
sI1215
g1
((lp3647
I587
aI459
aI211
atp3648
Rp3649
sI1216
g1
((lp3650
I42
aI29
aI623
atp3651
Rp3652
sI1217
g1
((lp3653
I97
aI28
aI405
atp3654
Rp3655
sI1218
g1
((lp3656
I1144
aI41
aI505
atp3657
Rp3658
sI1219
g1
((lp3659
I113
aI371
aI1020
atp3660
Rp3661
sI1220
g1
((lp3662
I1185
aI986
aI413
atp3663
Rp3664
sI1221
g1
((lp3665
I1208
aI821
aI733
atp3666
Rp3667
sI1222
g1
((lp3668
I514
aI445
aI142
atp3669
Rp3670
sI1223
g1
((lp3671
I1179
aI975
aI375
atp3672
Rp3673
sI1224
g1
((lp3674
I177
aI1058
aI813
atp3675
Rp3676
sI1225
g1
((lp3677
I392
aI312
aI1119
atp3678
Rp3679
sI1226
g1
((lp3680
I146
aI301
aI983
atp3681
Rp3682
sI1227
g1
((lp3683
I33
aI901
aI893
atp3684
Rp3685
sI1228
g1
((lp3686
I715
aI20
aI590
atp3687
Rp3688
sI1229
g1
((lp3689
I1152
aI257
aI590
atp3690
Rp3691
sI1230
g1
((lp3692
I593
aI794
aI7
atp3693
Rp3694
sI1231
g1
((lp3695
I1169
aI26
aI290
atp3696
Rp3697
sI1232
g1
((lp3698
I176
aI185
aI145
atp3699
Rp3700
sI1233
g1
((lp3701
I756
aI685
aI469
atp3702
Rp3703
sI1234
g1
((lp3704
I90
aI79
aI975
atp3705
Rp3706
sI1235
g1
((lp3707
I1108
aI533
aI559
atp3708
Rp3709
sI1236
g1
((lp3710
I504
aI404
aI798
atp3711
Rp3712
sI1237
g1
((lp3713
I424
aI347
aI479
atp3714
Rp3715
sI1238
g1
((lp3716
I1104
aI204
aI63
atp3717
Rp3718
s.